ccopy_reg
_reconstructor
p1
(cmatplotlib.font_manager
FontManager
p2
c__builtin__
object
p3
NtRp4
(dp5
S'ttflist'
p6
(lp7
g1
(cmatplotlib.font_manager
FontEntry
p8
g3
NtRp9
(dp10
S'style'
p11
Vnormal
p12
sS'name'
p13
VBitstream Vera Serif
p14
sS'weight'
p15
I400
sS'stretch'
p16
g12
sS'variant'
p17
g12
sS'fname'
p18
V/usr/local/lib/python2.7/dist-packages/matplotlib/mpl-data/fonts/ttf/VeraSe.ttf
p19
sS'size'
p20
Vscalable
p21
sbag1
(g8
g3
NtRp22
(dp23
g11
Voblique
p24
sg13
VBitstream Vera Sans Mono
p25
sg15
I700
sg16
g12
sg17
g12
sg18
V/usr/local/lib/python2.7/dist-packages/matplotlib/mpl-data/fonts/ttf/VeraMoBI.ttf
p26
sg20
g21
sbag1
(g8
g3
NtRp27
(dp28
g11
g12
sg13
VSTIXGeneral
p29
sg15
I400
sg16
g12
sg17
g12
sg18
V/usr/local/lib/python2.7/dist-packages/matplotlib/mpl-data/fonts/ttf/STIXGeneral.ttf
p30
sg20
g21
sbag1
(g8
g3
NtRp31
(dp32
g11
g12
sg13
VBitstream Vera Sans
p33
sg15
I700
sg16
g12
sg17
g12
sg18
V/usr/local/lib/python2.7/dist-packages/matplotlib/mpl-data/fonts/ttf/VeraBd.ttf
p34
sg20
g21
sbag1
(g8
g3
NtRp35
(dp36
g11
g12
sg13
VSTIXGeneral
p37
sg15
I700
sg16
g12
sg17
g12
sg18
V/usr/local/lib/python2.7/dist-packages/matplotlib/mpl-data/fonts/ttf/STIXGeneralBol.ttf
p38
sg20
g21
sbag1
(g8
g3
NtRp39
(dp40
g11
g12
sg13
VBitstream Vera Sans
p41
sg15
I400
sg16
g12
sg17
g12
sg18
V/usr/local/lib/python2.7/dist-packages/matplotlib/mpl-data/fonts/ttf/Vera.ttf
p42
sg20
g21
sbag1
(g8
g3
NtRp43
(dp44
g11
g12
sg13
VSTIXNonUnicode
p45
sg15
I700
sg16
g12
sg17
g12
sg18
V/usr/local/lib/python2.7/dist-packages/matplotlib/mpl-data/fonts/ttf/STIXNonUniBol.ttf
p46
sg20
g21
sbag1
(g8
g3
NtRp47
(dp48
g11
g12
sg13
VSTIXSizeTwoSym
p49
sg15
I400
sg16
g12
sg17
g12
sg18
V/usr/local/lib/python2.7/dist-packages/matplotlib/mpl-data/fonts/ttf/STIXSizTwoSymReg.ttf
p50
sg20
g21
sbag1
(g8
g3
NtRp51
(dp52
g11
Vitalic
p53
sg13
VSTIXNonUnicode
p54
sg15
I400
sg16
g12
sg17
g12
sg18
V/usr/local/lib/python2.7/dist-packages/matplotlib/mpl-data/fonts/ttf/STIXNonUniIta.ttf
p55
sg20
g21
sbag1
(g8
g3
NtRp56
(dp57
g11
g12
sg13
VSTIXSizeFourSym
p58
sg15
I400
sg16
g12
sg17
g12
sg18
V/usr/local/lib/python2.7/dist-packages/matplotlib/mpl-data/fonts/ttf/STIXSizFourSymReg.ttf
p59
sg20
g21
sbag1
(g8
g3
NtRp60
(dp61
g11
g12
sg13
VSTIXSizeThreeSym
p62
sg15
I700
sg16
g12
sg17
g12
sg18
V/usr/local/lib/python2.7/dist-packages/matplotlib/mpl-data/fonts/ttf/STIXSizThreeSymBol.ttf
p63
sg20
g21
sbag1
(g8
g3
NtRp64
(dp65
g11
g12
sg13
VSTIXSizeOneSym
p66
sg15
I700
sg16
g12
sg17
g12
sg18
V/usr/local/lib/python2.7/dist-packages/matplotlib/mpl-data/fonts/ttf/STIXSizOneSymBol.ttf
p67
sg20
g21
sbag1
(g8
g3
NtRp68
(dp69
g11
g24
sg13
VBitstream Vera Sans
p70
sg15
I400
sg16
g12
sg17
g12
sg18
V/usr/local/lib/python2.7/dist-packages/matplotlib/mpl-data/fonts/ttf/VeraIt.ttf
p71
sg20
g21
sbag1
(g8
g3
NtRp72
(dp73
g11
g53
sg13
VSTIXGeneral
p74
sg15
I700
sg16
g12
sg17
g12
sg18
V/usr/local/lib/python2.7/dist-packages/matplotlib/mpl-data/fonts/ttf/STIXGeneralBolIta.ttf
p75
sg20
g21
sbag1
(g8
g3
NtRp76
(dp77
g11
g12
sg13
Vcmsy10
p78
sg15
I400
sg16
g12
sg17
g12
sg18
V/usr/local/lib/python2.7/dist-packages/matplotlib/mpl-data/fonts/ttf/cmsy10.ttf
p79
sg20
g21
sbag1
(g8
g3
NtRp80
(dp81
g11
g12
sg13
Vcmss10
p82
sg15
I400
sg16
g12
sg17
g12
sg18
V/usr/local/lib/python2.7/dist-packages/matplotlib/mpl-data/fonts/ttf/cmss10.ttf
p83
sg20
g21
sbag1
(g8
g3
NtRp84
(dp85
g11
g53
sg13
VSTIXNonUnicode
p86
sg15
I700
sg16
g12
sg17
g12
sg18
V/usr/local/lib/python2.7/dist-packages/matplotlib/mpl-data/fonts/ttf/STIXNonUniBolIta.ttf
p87
sg20
g21
sbag1
(g8
g3
NtRp88
(dp89
g11
g24
sg13
VBitstream Vera Sans Mono
p90
sg15
I400
sg16
g12
sg17
g12
sg18
V/usr/local/lib/python2.7/dist-packages/matplotlib/mpl-data/fonts/ttf/VeraMoIt.ttf
p91
sg20
g21
sbag1
(g8
g3
NtRp92
(dp93
g11
g12
sg13
Vcmmi10
p94
sg15
I400
sg16
g12
sg17
g12
sg18
V/usr/local/lib/python2.7/dist-packages/matplotlib/mpl-data/fonts/ttf/cmmi10.ttf
p95
sg20
g21
sbag1
(g8
g3
NtRp96
(dp97
g11
g12
sg13
Vcmb10
p98
sg15
I400
sg16
g12
sg17
g12
sg18
V/usr/local/lib/python2.7/dist-packages/matplotlib/mpl-data/fonts/ttf/cmb10.ttf
p99
sg20
g21
sbag1
(g8
g3
NtRp100
(dp101
g11
g12
sg13
VSTIXSizeFiveSym
p102
sg15
I400
sg16
g12
sg17
g12
sg18
V/usr/local/lib/python2.7/dist-packages/matplotlib/mpl-data/fonts/ttf/STIXSizFiveSymReg.ttf
p103
sg20
g21
sbag1
(g8
g3
NtRp104
(dp105
g11
g12
sg13
VSTIXSizeTwoSym
p106
sg15
I700
sg16
g12
sg17
g12
sg18
V/usr/local/lib/python2.7/dist-packages/matplotlib/mpl-data/fonts/ttf/STIXSizTwoSymBol.ttf
p107
sg20
g21
sbag1
(g8
g3
NtRp108
(dp109
g11
g12
sg13
VSTIXSizeFourSym
p110
sg15
I700
sg16
g12
sg17
g12
sg18
V/usr/local/lib/python2.7/dist-packages/matplotlib/mpl-data/fonts/ttf/STIXSizFourSymBol.ttf
p111
sg20
g21
sbag1
(g8
g3
NtRp112
(dp113
g11
g12
sg13
VBitstream Vera Sans Mono
p114
sg15
I700
sg16
g12
sg17
g12
sg18
V/usr/local/lib/python2.7/dist-packages/matplotlib/mpl-data/fonts/ttf/VeraMoBd.ttf
p115
sg20
g21
sbag1
(g8
g3
NtRp116
(dp117
g11
g12
sg13
VBitstream Vera Sans Mono
p118
sg15
I400
sg16
g12
sg17
g12
sg18
V/usr/local/lib/python2.7/dist-packages/matplotlib/mpl-data/fonts/ttf/VeraMono.ttf
p119
sg20
g21
sbag1
(g8
g3
NtRp120
(dp121
g11
g24
sg13
VBitstream Vera Sans
p122
sg15
I700
sg16
g12
sg17
g12
sg18
V/usr/local/lib/python2.7/dist-packages/matplotlib/mpl-data/fonts/ttf/VeraBI.ttf
p123
sg20
g21
sbag1
(g8
g3
NtRp124
(dp125
g11
g12
sg13
VBitstream Vera Serif
p126
sg15
I700
sg16
g12
sg17
g12
sg18
V/usr/local/lib/python2.7/dist-packages/matplotlib/mpl-data/fonts/ttf/VeraSeBd.ttf
p127
sg20
g21
sbag1
(g8
g3
NtRp128
(dp129
g11
g12
sg13
VSTIXNonUnicode
p130
sg15
I400
sg16
g12
sg17
g12
sg18
V/usr/local/lib/python2.7/dist-packages/matplotlib/mpl-data/fonts/ttf/STIXNonUni.ttf
p131
sg20
g21
sbag1
(g8
g3
NtRp132
(dp133
g11
g12
sg13
Vcmr10
p134
sg15
I400
sg16
g12
sg17
g12
sg18
V/usr/local/lib/python2.7/dist-packages/matplotlib/mpl-data/fonts/ttf/cmr10.ttf
p135
sg20
g21
sbag1
(g8
g3
NtRp136
(dp137
g11
g12
sg13
Vcmex10
p138
sg15
I400
sg16
g12
sg17
g12
sg18
V/usr/local/lib/python2.7/dist-packages/matplotlib/mpl-data/fonts/ttf/cmex10.ttf
p139
sg20
g21
sbag1
(g8
g3
NtRp140
(dp141
g11
g12
sg13
VSTIXSizeThreeSym
p142
sg15
I400
sg16
g12
sg17
g12
sg18
V/usr/local/lib/python2.7/dist-packages/matplotlib/mpl-data/fonts/ttf/STIXSizThreeSymReg.ttf
p143
sg20
g21
sbag1
(g8
g3
NtRp144
(dp145
g11
g12
sg13
VSTIXSizeOneSym
p146
sg15
I400
sg16
g12
sg17
g12
sg18
V/usr/local/lib/python2.7/dist-packages/matplotlib/mpl-data/fonts/ttf/STIXSizOneSymReg.ttf
p147
sg20
g21
sbag1
(g8
g3
NtRp148
(dp149
g11
g12
sg13
Vcmtt10
p150
sg15
I400
sg16
g12
sg17
g12
sg18
V/usr/local/lib/python2.7/dist-packages/matplotlib/mpl-data/fonts/ttf/cmtt10.ttf
p151
sg20
g21
sbag1
(g8
g3
NtRp152
(dp153
g11
g53
sg13
VSTIXGeneral
p154
sg15
I400
sg16
g12
sg17
g12
sg18
V/usr/local/lib/python2.7/dist-packages/matplotlib/mpl-data/fonts/ttf/STIXGeneralItalic.ttf
p155
sg20
g21
sbag1
(g8
g3
NtRp156
(dp157
g11
g12
sg13
VSTIXIntegralsUp
p158
sg15
I400
sg16
g12
sg17
g12
sg18
V/usr/share/fonts/opentype/stix/STIXIntegralsUp-Regular.otf
p159
sg20
g21
sbag1
(g8
g3
NtRp160
(dp161
g11
g12
sg13
VKacstTitle
p162
sg15
I400
sg16
g12
sg17
g12
sg18
V/usr/share/fonts/truetype/kacst/KacstTitle.ttf
p163
sg20
g21
sbag1
(g8
g3
NtRp164
(dp165
g11
g53
sg13
VLinux Libertine Capitals O
p166
sg15
I400
sg16
g12
sg17
g12
sg18
V/usr/share/fonts/opentype/linux-libertine/LinLibertine_aSI.otf
p167
sg20
g21
sbag1
(g8
g3
NtRp168
(dp169
g11
g12
sg13
VInconsolata
p170
sg15
I400
sg16
g12
sg17
g12
sg18
V/usr/share/fonts/truetype/inconsolata/Inconsolata.otf
p171
sg20
g21
sbag1
(g8
g3
NtRp172
(dp173
g11
g12
sg13
VKacstScreen
p174
sg15
I400
sg16
g12
sg17
g12
sg18
V/usr/share/fonts/truetype/kacst/KacstScreen.ttf
p175
sg20
g21
sbag1
(g8
g3
NtRp176
(dp177
g11
g24
sg13
VLoma
p178
sg15
I400
sg16
g12
sg17
g12
sg18
V/usr/share/fonts/truetype/tlwg/Loma-Oblique.ttf
p179
sg20
g21
sbag1
(g8
g3
NtRp180
(dp181
g11
g24
sg13
VNorasi
p182
sg15
I400
sg16
g12
sg17
g12
sg18
V/usr/share/fonts/truetype/tlwg/Norasi-Oblique.ttf
p183
sg20
g21
sbag1
(g8
g3
NtRp184
(dp185
g11
g53
sg13
VGentium Basic
p186
sg15
I400
sg16
g12
sg17
g12
sg18
V/usr/share/fonts/truetype/gentium-basic/GenBasI.ttf
p187
sg20
g21
sbag1
(g8
g3
NtRp188
(dp189
g11
g53
sg13
VGentium Book Basic
p190
sg15
I700
sg16
g12
sg17
g12
sg18
V/usr/share/fonts/truetype/gentium-basic/GenBkBasBI.ttf
p191
sg20
g21
sbag1
(g8
g3
NtRp192
(dp193
g11
g12
sg13
VTakaoPGothic
p194
sg15
I400
sg16
g12
sg17
g12
sg18
V/usr/share/fonts/truetype/fonts-japanese-gothic.ttf
p195
sg20
g21
sbag1
(g8
g3
NtRp196
(dp197
g11
g12
sg13
VGentium Book Basic
p198
sg15
I400
sg16
g12
sg17
g12
sg18
V/usr/share/fonts/truetype/gentium-basic/GenBkBasR.ttf
p199
sg20
g21
sbag1
(g8
g3
NtRp200
(dp201
g11
g12
sg13
VUnDotum
p202
sg15
I400
sg16
g12
sg17
g12
sg18
V/usr/share/fonts/truetype/unfonts-core/UnDotum.ttf
p203
sg20
g21
sbag1
(g8
g3
NtRp204
(dp205
g11
g12
sg13
VLinux Libertine O
p206
sg15
I700
sg16
g12
sg17
g12
sg18
V/usr/share/fonts/opentype/linux-libertine/LinLibertine_RZ.otf
p207
sg20
g21
sbag1
(g8
g3
NtRp208
(dp209
g11
g24
sg13
VFreeMono
p210
sg15
I700
sg16
g12
sg17
g12
sg18
V/usr/share/fonts/truetype/freefont/FreeMonoBoldOblique.ttf
p211
sg20
g21
sbag1
(g8
g3
NtRp212
(dp213
g11
g53
sg13
VGFS Didot
p214
sg15
I700
sg16
g12
sg17
g12
sg18
V/usr/share/fonts/truetype/didot/GFSDidotBoldItalic.otf
p215
sg20
g21
sbag1
(g8
g3
NtRp216
(dp217
g11
g12
sg13
VUmpush
p218
sg15
I400
sg16
g12
sg17
g12
sg18
V/usr/share/fonts/truetype/tlwg/Umpush.ttf
p219
sg20
g21
sbag1
(g8
g3
NtRp220
(dp221
g11
g12
sg13
VGFS Olga
p222
sg15
I400
sg16
g12
sg17
g12
sg18
V/usr/share/fonts/truetype/olga/GFSOlga.otf
p223
sg20
g21
sbag1
(g8
g3
NtRp224
(dp225
g11
g53
sg13
VGeorgia
p226
sg15
I700
sg16
g12
sg17
g12
sg18
V/usr/share/fonts/truetype/msttcorefonts/Georgia_Bold_Italic.ttf
p227
sg20
g21
sbag1
(g8
g3
NtRp228
(dp229
g11
g24
sg13
VDejaVu Sans
p230
sg15
I400
sg16
g12
sg17
g12
sg18
V/usr/share/fonts/truetype/ttf-dejavu/DejaVuSans-Oblique.ttf
p231
sg20
g21
sbag1
(g8
g3
NtRp232
(dp233
g11
g12
sg13
Veufm10
p234
sg15
I400
sg16
g12
sg17
g12
sg18
V/usr/share/fonts/truetype/ttf-lyx/eufm10.ttf
p235
sg20
g21
sbag1
(g8
g3
NtRp236
(dp237
g11
g24
sg13
VDejaVu Sans
p238
sg15
I700
sg16
g12
sg17
g12
sg18
V/usr/share/fonts/truetype/ttf-dejavu/DejaVuSans-BoldOblique.ttf
p239
sg20
g21
sbag1
(g8
g3
NtRp240
(dp241
g11
g12
sg13
VTlwg Typist
p242
sg15
I400
sg16
g12
sg17
g12
sg18
V/usr/share/fonts/truetype/tlwg/TlwgTypist.ttf
p243
sg20
g21
sbag1
(g8
g3
NtRp244
(dp245
g11
g12
sg13
VNanumGothic
p246
sg15
I400
sg16
g12
sg17
g12
sg18
V/usr/share/fonts/truetype/nanum/NanumGothic.ttf
p247
sg20
g21
sbag1
(g8
g3
NtRp248
(dp249
g11
g53
sg13
VLinux Libertine Capitals O
p250
sg15
I700
sg16
g12
sg17
g12
sg18
V/usr/share/fonts/opentype/linux-libertine/LinLibertine_aSZI.otf
p251
sg20
g21
sbag1
(g8
g3
NtRp252
(dp253
g11
g12
sg13
VImpact
p254
sg15
I400
sg16
g12
sg17
g12
sg18
V/usr/share/fonts/truetype/msttcorefonts/Impact.ttf
p255
sg20
g21
sbag1
(g8
g3
NtRp256
(dp257
g11
g53
sg13
VAmiri
p258
sg15
I400
sg16
g12
sg17
g12
sg18
V/usr/share/fonts/opentype/fonts-hosny-amiri/amiri-slanted.ttf
p259
sg20
g21
sbag1
(g8
g3
NtRp260
(dp261
g11
g12
sg13
VGFS Artemisia
p262
sg15
I700
sg16
g12
sg17
g12
sg18
V/usr/share/fonts/truetype/artemisia/GFSArtemisiaBold.otf
p263
sg20
g21
sbag1
(g8
g3
NtRp264
(dp265
g11
g12
sg13
VGentium Basic
p266
sg15
I400
sg16
g12
sg17
g12
sg18
V/usr/share/fonts/truetype/gentium-basic/GenBasR.ttf
p267
sg20
g21
sbag1
(g8
g3
NtRp268
(dp269
g11
g53
sg13
VGentium
p270
sg15
I400
sg16
g12
sg17
g12
sg18
V/usr/share/fonts/truetype/gentium/GenI102.ttf
p271
sg20
g21
sbag1
(g8
g3
NtRp272
(dp273
g11
g12
sg13
VComfortaa
p274
sg15
I200
sg16
g12
sg17
g12
sg18
V/usr/share/fonts/truetype/comfortaa/Comfortaa-Light.ttf
p275
sg20
g21
sbag1
(g8
g3
NtRp276
(dp277
g11
g53
sg13
VLinux Biolinum Shadow O
p278
sg15
I400
sg16
g12
sg17
g12
sg18
V/usr/share/fonts/opentype/linux-libertine/LinBiolinum_aWI.otf
p279
sg20
g21
sbag1
(g8
g3
NtRp280
(dp281
g11
g12
sg13
VAndale Mono
p282
sg15
I400
sg16
g12
sg17
g12
sg18
V/usr/share/fonts/truetype/msttcorefonts/andalemo.ttf
p283
sg20
g21
sbag1
(g8
g3
NtRp284
(dp285
g11
g53
sg13
VArial
p286
sg15
I700
sg16
g12
sg17
g12
sg18
V/usr/share/fonts/truetype/msttcorefonts/arialbi.ttf
p287
sg20
g21
sbag1
(g8
g3
NtRp288
(dp289
g11
g53
sg13
VLiberation Sans
p290
sg15
I400
sg16
g12
sg17
g12
sg18
V/usr/share/fonts/truetype/liberation/LiberationSans-Italic.ttf
p291
sg20
g21
sbag1
(g8
g3
NtRp292
(dp293
g11
g12
sg13
VSTIXIntegralsUp
p294
sg15
I700
sg16
g12
sg17
g12
sg18
V/usr/share/fonts/opentype/stix/STIXIntegralsUp-Bold.otf
p295
sg20
g21
sbag1
(g8
g3
NtRp296
(dp297
g11
g12
sg13
VUnBatang
p298
sg15
I400
sg16
g12
sg17
g12
sg18
V/usr/share/fonts/truetype/unfonts-core/UnBatang.ttf
p299
sg20
g21
sbag1
(g8
g3
NtRp300
(dp301
g11
g12
sg13
VCourier New
p302
sg15
I700
sg16
g12
sg17
g12
sg18
V/usr/share/fonts/truetype/msttcorefonts/courbd.ttf
p303
sg20
g21
sbag1
(g8
g3
NtRp304
(dp305
g11
g12
sg13
VTrebuchet MS
p306
sg15
I400
sg16
g12
sg17
g12
sg18
V/usr/share/fonts/truetype/msttcorefonts/Trebuchet_MS.ttf
p307
sg20
g21
sbag1
(g8
g3
NtRp308
(dp309
g11
g12
sg13
VDejaVu Serif
p310
sg15
I700
sg16
Vcondensed
p311
sg17
g12
sg18
V/usr/share/fonts/truetype/ttf-dejavu/DejaVuSerifCondensed-Bold.ttf
p312
sg20
g21
sbag1
(g8
g3
NtRp313
(dp314
g11
g53
sg13
VLinux Libertine Capitals O
p315
sg15
I700
sg16
g12
sg17
g12
sg18
V/usr/share/fonts/opentype/linux-libertine/LinLibertine_aSBI.otf
p316
sg20
g21
sbag1
(g8
g3
NtRp317
(dp318
g11
g53
sg13
VTrebuchet MS
p319
sg15
I400
sg16
g12
sg17
g12
sg18
V/usr/share/fonts/truetype/msttcorefonts/Trebuchet_MS_Italic.ttf
p320
sg20
g21
sbag1
(g8
g3
NtRp321
(dp322
g11
g12
sg13
VLinux Libertine Display Capitals O
p323
sg15
I400
sg16
g12
sg17
g12
sg18
V/usr/share/fonts/opentype/linux-libertine/LinLibertine_aDRS.otf
p324
sg20
g21
sbag1
(g8
g3
NtRp325
(dp326
g11
g12
sg13
VUnDinaru
p327
sg15
I400
sg16
g12
sg17
g12
sg18
V/usr/share/fonts/truetype/unfonts-core/UnDinaru.ttf
p328
sg20
g21
sbag1
(g8
g3
NtRp329
(dp330
g11
g12
sg13
VDroid Serif
p331
sg15
I400
sg16
g12
sg17
g12
sg18
V/usr/share/fonts/truetype/droid/DroidSerif-Regular.ttf
p332
sg20
g21
sbag1
(g8
g3
NtRp333
(dp334
g11
g12
sg13
VArial
p335
sg15
I400
sg16
g12
sg17
g12
sg18
V/usr/share/fonts/truetype/msttcorefonts/Arial.ttf
p336
sg20
g21
sbag1
(g8
g3
NtRp337
(dp338
g11
g12
sg13
VLinux Libertine Capitals O
p339
sg15
I400
sg16
g12
sg17
g12
sg18
V/usr/share/fonts/opentype/linux-libertine/LinLibertine_aS.otf
p340
sg20
g21
sbag1
(g8
g3
NtRp341
(dp342
g11
g12
sg13
VTimes New Roman
p343
sg15
I500
sg16
g12
sg17
g12
sg18
V/usr/share/fonts/truetype/msttcorefonts/times.ttf
p344
sg20
g21
sbag1
(g8
g3
NtRp345
(dp346
g11
g12
sg13
VFreeSerif
p347
sg15
I700
sg16
g12
sg17
g12
sg18
V/usr/share/fonts/opentype/freefont/FreeSerifBold.otf
p348
sg20
g21
sbag1
(g8
g3
NtRp349
(dp350
g11
g53
sg13
VLinux Libertine Slanted O
p351
sg15
I700
sg16
g12
sg17
g12
sg18
V/usr/share/fonts/opentype/linux-libertine/LinLibertine_aZL.otf
p352
sg20
g21
sbag1
(g8
g3
NtRp353
(dp354
g11
g12
sg13
VFreeSans
p355
sg15
I400
sg16
g12
sg17
g12
sg18
V/usr/share/fonts/opentype/freefont/FreeSans.otf
p356
sg20
g21
sbag1
(g8
g3
NtRp357
(dp358
g11
g12
sg13
VKacstNaskh
p359
sg15
I400
sg16
g12
sg17
g12
sg18
V/usr/share/fonts/truetype/kacst/KacstNaskh.ttf
p360
sg20
g21
sbag1
(g8
g3
NtRp361
(dp362
g11
g12
sg13
VTrebuchet MS
p363
sg15
I400
sg16
g12
sg17
g12
sg18
V/usr/share/fonts/truetype/msttcorefonts/trebuc.ttf
p364
sg20
g21
sbag1
(g8
g3
NtRp365
(dp366
g11
g53
sg13
VKinnari
p367
sg15
I700
sg16
g12
sg17
g12
sg18
V/usr/share/fonts/truetype/tlwg/Kinnari-BoldItalic.ttf
p368
sg20
g21
sbag1
(g8
g3
NtRp369
(dp370
g11
g12
sg13
VSawasdee
p371
sg15
I400
sg16
g12
sg17
g12
sg18
V/usr/share/fonts/truetype/tlwg/Sawasdee.ttf
p372
sg20
g21
sbag1
(g8
g3
NtRp373
(dp374
g11
g12
sg13
VSTIXSizeThreeSym
p375
sg15
I400
sg16
g12
sg17
g12
sg18
V/usr/share/fonts/opentype/stix/STIXSizeThreeSym-Regular.otf
p376
sg20
g21
sbag1
(g8
g3
NtRp377
(dp378
g11
g12
sg13
VUnDinaru
p379
sg15
I700
sg16
g12
sg17
g12
sg18
V/usr/share/fonts/truetype/unfonts-core/UnDinaruBold.ttf
p380
sg20
g21
sbag1
(g8
g3
NtRp381
(dp382
g11
g12
sg13
VFreeSans
p383
sg15
I700
sg16
g12
sg17
g12
sg18
V/usr/share/fonts/truetype/freefont/FreeSansBold.ttf
p384
sg20
g21
sbag1
(g8
g3
NtRp385
(dp386
g11
g12
sg13
VPurisa
p387
sg15
I700
sg16
g12
sg17
g12
sg18
V/usr/share/fonts/truetype/tlwg/Purisa-Bold.ttf
p388
sg20
g21
sbag1
(g8
g3
NtRp389
(dp390
g11
g12
sg13
VTlwg Typist
p391
sg15
I700
sg16
g12
sg17
g12
sg18
V/usr/share/fonts/truetype/tlwg/TlwgTypist-Bold.ttf
p392
sg20
g21
sbag1
(g8
g3
NtRp393
(dp394
g11
g12
sg13
VKacstPoster
p395
sg15
I400
sg16
g12
sg17
g12
sg18
V/usr/share/fonts/truetype/kacst/KacstPoster.ttf
p396
sg20
g21
sbag1
(g8
g3
NtRp397
(dp398
g11
g12
sg13
VPurisa
p399
sg15
I400
sg16
g12
sg17
g12
sg18
V/usr/share/fonts/truetype/tlwg/Purisa.ttf
p400
sg20
g21
sbag1
(g8
g3
NtRp401
(dp402
g11
g12
sg13
VSTIXSizeOneSym
p403
sg15
I700
sg16
g12
sg17
g12
sg18
V/usr/share/fonts/opentype/stix/STIXSizeOneSym-Bold.otf
p404
sg20
g21
sbag1
(g8
g3
NtRp405
(dp406
g11
g53
sg13
VGeorgia
p407
sg15
I400
sg16
g12
sg17
g12
sg18
V/usr/share/fonts/truetype/msttcorefonts/Georgia_Italic.ttf
p408
sg20
g21
sbag1
(g8
g3
NtRp409
(dp410
g11
g53
sg13
VUbuntu
p411
sg15
I200
sg16
g12
sg17
g12
sg18
V/usr/share/fonts/truetype/ubuntu-font-family/Ubuntu-LI.ttf
p412
sg20
g21
sbag1
(g8
g3
NtRp413
(dp414
g11
g12
sg13
VDroid Sans Mono
p415
sg15
I400
sg16
g12
sg17
g12
sg18
V/usr/share/fonts/truetype/droid/DroidSansMono.ttf
p416
sg20
g21
sbag1
(g8
g3
NtRp417
(dp418
g11
g12
sg13
VFreeSerif
p419
sg15
I400
sg16
g12
sg17
g12
sg18
V/usr/share/fonts/opentype/freefont/FreeSerif.otf
p420
sg20
g21
sbag1
(g8
g3
NtRp421
(dp422
g11
g12
sg13
VGFS Didot
p423
sg15
I400
sg16
g12
sg17
g12
sg18
V/usr/share/fonts/truetype/didot/GFSDidot.otf
p424
sg20
g21
sbag1
(g8
g3
NtRp425
(dp426
g11
g24
sg13
VUmpush
p427
sg15
I400
sg16
g12
sg17
g12
sg18
V/usr/share/fonts/truetype/tlwg/Umpush-Oblique.ttf
p428
sg20
g21
sbag1
(g8
g3
NtRp429
(dp430
g11
g12
sg13
VNanumGothic
p431
sg15
I700
sg16
g12
sg17
g12
sg18
V/usr/share/fonts/truetype/nanum/NanumGothicBold.ttf
p432
sg20
g21
sbag1
(g8
g3
NtRp433
(dp434
g11
g53
sg13
VLiberation Mono
p435
sg15
I700
sg16
g12
sg17
g12
sg18
V/usr/share/fonts/truetype/liberation/LiberationMono-BoldItalic.ttf
p436
sg20
g21
sbag1
(g8
g3
NtRp437
(dp438
g11
g12
sg13
VLinux Libertine Capitals O
p439
sg15
I700
sg16
g12
sg17
g12
sg18
V/usr/share/fonts/opentype/linux-libertine/LinLibertine_aZS.otf
p440
sg20
g21
sbag1
(g8
g3
NtRp441
(dp442
g11
g53
sg13
VFreeSerif
p443
sg15
I400
sg16
g12
sg17
g12
sg18
V/usr/share/fonts/opentype/freefont/FreeSerifItalic.otf
p444
sg20
g21
sbag1
(g8
g3
NtRp445
(dp446
g11
g12
sg13
VDejaVu Sans
p447
sg15
I400
sg16
g12
sg17
g12
sg18
V/usr/share/fonts/truetype/ttf-dejavu/DejaVuSans.ttf
p448
sg20
g21
sbag1
(g8
g3
NtRp449
(dp450
g11
g12
sg13
VUbuntu Condensed
p451
sg15
I400
sg16
g311
sg17
g12
sg18
V/usr/share/fonts/truetype/ubuntu-font-family/Ubuntu-C.ttf
p452
sg20
g21
sbag1
(g8
g3
NtRp453
(dp454
g11
g12
sg13
VLinux Libertine Capitals O
p455
sg15
I700
sg16
g12
sg17
g12
sg18
V/usr/share/fonts/opentype/linux-libertine/LinLibertine_aBS.otf
p456
sg20
g21
sbag1
(g8
g3
NtRp457
(dp458
g11
g12
sg13
VOpenSymbol
p459
sg15
I400
sg16
g12
sg17
g12
sg18
V/usr/share/fonts/truetype/openoffice/opens___.ttf
p460
sg20
g21
sbag1
(g8
g3
NtRp461
(dp462
g11
g53
sg13
VNorasi
p463
sg15
I400
sg16
g12
sg17
g12
sg18
V/usr/share/fonts/truetype/tlwg/Norasi-Italic.ttf
p464
sg20
g21
sbag1
(g8
g3
NtRp465
(dp466
g11
g12
sg13
VKhmer OS System
p467
sg15
I400
sg16
g12
sg17
g12
sg18
V/usr/share/fonts/truetype/ttf-khmeros-core/KhmerOSsys.ttf
p468
sg20
g21
sbag1
(g8
g3
NtRp469
(dp470
g11
g24
sg13
VTlwg Typist
p471
sg15
I400
sg16
g12
sg17
g12
sg18
V/usr/share/fonts/truetype/tlwg/TlwgTypist-Oblique.ttf
p472
sg20
g21
sbag1
(g8
g3
NtRp473
(dp474
g11
g12
sg13
VFreeSans
p475
sg15
I700
sg16
g12
sg17
g12
sg18
V/usr/share/fonts/opentype/freefont/FreeSansBold.otf
p476
sg20
g21
sbag1
(g8
g3
NtRp477
(dp478
g11
g53
sg13
VAmiri
p479
sg15
I700
sg16
g12
sg17
g12
sg18
V/usr/share/fonts/opentype/fonts-hosny-amiri/amiri-boldslanted.ttf
p480
sg20
g21
sbag1
(g8
g3
NtRp481
(dp482
g11
g12
sg13
VMukti Narrow
p483
sg15
I700
sg16
g12
sg17
g12
sg18
V/usr/share/fonts/truetype/ttf-indic-fonts-core/MuktiNarrowBold.ttf
p484
sg20
g21
sbag1
(g8
g3
NtRp485
(dp486
g11
g12
sg13
VVerdana
p487
sg15
I700
sg16
g12
sg17
g12
sg18
V/usr/share/fonts/truetype/msttcorefonts/verdanab.ttf
p488
sg20
g21
sbag1
(g8
g3
NtRp489
(dp490
g11
g53
sg13
VUbuntu
p491
sg15
I400
sg16
g12
sg17
g12
sg18
V/usr/share/fonts/truetype/ubuntu-font-family/Ubuntu-RI.ttf
p492
sg20
g21
sbag1
(g8
g3
NtRp493
(dp494
g11
g12
sg13
VUnDinaru
p495
sg15
I200
sg16
g12
sg17
g12
sg18
V/usr/share/fonts/truetype/unfonts-core/UnDinaruLight.ttf
p496
sg20
g21
sbag1
(g8
g3
NtRp497
(dp498
g11
g12
sg13
VLinux Biolinum Outline O
p499
sg15
I400
sg16
g12
sg17
g12
sg18
V/usr/share/fonts/opentype/linux-libertine/LinBiolinum_aU.otf
p500
sg20
g21
sbag1
(g8
g3
NtRp501
(dp502
g11
g12
sg13
VLiberation Serif
p503
sg15
I400
sg16
g12
sg17
g12
sg18
V/usr/share/fonts/truetype/liberation/LiberationSerif-Regular.ttf
p504
sg20
g21
sbag1
(g8
g3
NtRp505
(dp506
g11
g53
sg13
VUbuntu Mono
p507
sg15
I700
sg16
g12
sg17
g12
sg18
V/usr/share/fonts/truetype/ubuntu-font-family/UbuntuMono-BI.ttf
p508
sg20
g21
sbag1
(g8
g3
NtRp509
(dp510
g11
g53
sg13
VLinux Libertine Display Slanted O
p511
sg15
I400
sg16
g12
sg17
g12
sg18
V/usr/share/fonts/opentype/linux-libertine/LinLibertine_aDRL.otf
p512
sg20
g21
sbag1
(g8
g3
NtRp513
(dp514
g11
g12
sg13
VLohit Tamil
p515
sg15
I400
sg16
g12
sg17
g12
sg18
V/usr/share/fonts/truetype/ttf-indic-fonts-core/lohit_ta.ttf
p516
sg20
g21
sbag1
(g8
g3
NtRp517
(dp518
g11
g12
sg13
VKinnari
p519
sg15
I400
sg16
g12
sg17
g12
sg18
V/usr/share/fonts/truetype/tlwg/Kinnari.ttf
p520
sg20
g21
sbag1
(g8
g3
NtRp521
(dp522
g11
g12
sg13
VSTIXGeneral
p523
sg15
I400
sg16
g12
sg17
g12
sg18
V/usr/share/fonts/opentype/stix/STIXGeneral-Regular.otf
p524
sg20
g21
sbag1
(g8
g3
NtRp525
(dp526
g11
g12
sg13
VTimes New Roman
p527
sg15
I700
sg16
g12
sg17
g12
sg18
V/usr/share/fonts/truetype/msttcorefonts/timesbd.ttf
p528
sg20
g21
sbag1
(g8
g3
NtRp529
(dp530
g11
g12
sg13
VJunicode
p531
sg15
I700
sg16
g12
sg17
g12
sg18
V/usr/share/fonts/truetype/junicode/Junicode-Bold.ttf
p532
sg20
g21
sbag1
(g8
g3
NtRp533
(dp534
g11
g12
sg13
VTrebuchet MS
p535
sg15
I700
sg16
g12
sg17
g12
sg18
V/usr/share/fonts/truetype/msttcorefonts/Trebuchet_MS_Bold.ttf
p536
sg20
g21
sbag1
(g8
g3
NtRp537
(dp538
g11
g53
sg13
VGFS Didot
p539
sg15
I400
sg16
g12
sg17
g12
sg18
V/usr/share/fonts/truetype/didot/GFSDidotItalic.otf
p540
sg20
g21
sbag1
(g8
g3
NtRp541
(dp542
g11
g12
sg13
VTlwgMono
p543
sg15
I400
sg16
g12
sg17
g12
sg18
V/usr/share/fonts/truetype/tlwg/TlwgMono.ttf
p544
sg20
g21
sbag1
(g8
g3
NtRp545
(dp546
g11
g12
sg13
VAmiri
p547
sg15
I700
sg16
g12
sg17
g12
sg18
V/usr/share/fonts/opentype/fonts-hosny-amiri/amiri-bold.ttf
p548
sg20
g21
sbag1
(g8
g3
NtRp549
(dp550
g11
g12
sg13
VArial
p551
sg15
I700
sg16
g12
sg17
g12
sg18
V/usr/share/fonts/truetype/msttcorefonts/Arial_Bold.ttf
p552
sg20
g21
sbag1
(g8
g3
NtRp553
(dp554
g11
g53
sg13
VTimes New Roman
p555
sg15
I700
sg16
g12
sg17
g12
sg18
V/usr/share/fonts/truetype/msttcorefonts/timesbi.ttf
p556
sg20
g21
sbag1
(g8
g3
NtRp557
(dp558
g11
g24
sg13
VPurisa
p559
sg15
I400
sg16
g12
sg17
g12
sg18
V/usr/share/fonts/truetype/tlwg/Purisa-Oblique.ttf
p560
sg20
g21
sbag1
(g8
g3
NtRp561
(dp562
g11
g53
sg13
VKinnari
p563
sg15
I400
sg16
g12
sg17
g12
sg18
V/usr/share/fonts/truetype/tlwg/Kinnari-Italic.ttf
p564
sg20
g21
sbag1
(g8
g3
NtRp565
(dp566
g11
g12
sg13
VDejaVu Serif
p567
sg15
I400
sg16
g311
sg17
g12
sg18
V/usr/share/fonts/truetype/ttf-dejavu/DejaVuSerifCondensed.ttf
p568
sg20
g21
sbag1
(g8
g3
NtRp569
(dp570
g11
g12
sg13
VSTIXSizeOneSym
p571
sg15
I400
sg16
g12
sg17
g12
sg18
V/usr/share/fonts/opentype/stix/STIXSizeOneSym-Regular.otf
p572
sg20
g21
sbag1
(g8
g3
NtRp573
(dp574
g11
g12
sg13
VSaab
p575
sg15
I400
sg16
g12
sg17
g12
sg18
V/usr/share/fonts/truetype/ttf-punjabi-fonts/Saab.ttf
p576
sg20
g21
sbag1
(g8
g3
NtRp577
(dp578
g11
g12
sg13
VImpact
p579
sg15
I400
sg16
g12
sg17
g12
sg18
V/usr/share/fonts/truetype/msttcorefonts/impact.ttf
p580
sg20
g21
sbag1
(g8
g3
NtRp581
(dp582
g11
g24
sg13
VGaruda
p583
sg15
I700
sg16
g12
sg17
g12
sg18
V/usr/share/fonts/truetype/tlwg/Garuda-BoldOblique.ttf
p584
sg20
g21
sbag1
(g8
g3
NtRp585
(dp586
g11
g12
sg13
VKacstLetter
p587
sg15
I400
sg16
g12
sg17
g12
sg18
V/usr/share/fonts/truetype/kacst/KacstLetter.ttf
p588
sg20
g21
sbag1
(g8
g3
NtRp589
(dp590
g11
g12
sg13
VUntitled1
p591
sg15
I400
sg16
g12
sg17
g12
sg18
V/usr/share/fonts/truetype/freefont/Untitled1.ttf
p592
sg20
g21
sbag1
(g8
g3
NtRp593
(dp594
g11
g53
sg13
VGFS Neohellenic
p595
sg15
I700
sg16
g12
sg17
g12
sg18
V/usr/share/fonts/truetype/neohellenic/GFSNeohellenicBoldIt.otf
p596
sg20
g21
sbag1
(g8
g3
NtRp597
(dp598
g11
g24
sg13
VTlwgTypewriter
p599
sg15
I400
sg16
g12
sg17
g12
sg18
V/usr/share/fonts/truetype/tlwg/TlwgTypewriter-Oblique.ttf
p600
sg20
g21
sbag1
(g8
g3
NtRp601
(dp602
g11
g12
sg13
VGFS Artemisia
p603
sg15
I400
sg16
g12
sg17
g12
sg18
V/usr/share/fonts/truetype/artemisia/GFSArtemisia.otf
p604
sg20
g21
sbag1
(g8
g3
NtRp605
(dp606
g11
g12
sg13
VGaruda
p607
sg15
I700
sg16
g12
sg17
g12
sg18
V/usr/share/fonts/truetype/tlwg/Garuda-Bold.ttf
p608
sg20
g21
sbag1
(g8
g3
NtRp609
(dp610
g11
g24
sg13
VTlwg Typist
p611
sg15
I700
sg16
g12
sg17
g12
sg18
V/usr/share/fonts/truetype/tlwg/TlwgTypist-BoldOblique.ttf
p612
sg20
g21
sbag1
(g8
g3
NtRp613
(dp614
g11
g53
sg13
Vrsfs10
p615
sg15
I400
sg16
g12
sg17
g12
sg18
V/usr/share/fonts/truetype/ttf-lyx/rsfs10.ttf
p616
sg20
g21
sbag1
(g8
g3
NtRp617
(dp618
g11
g24
sg13
VFreeSans
p619
sg15
I400
sg16
g12
sg17
g12
sg18
V/usr/share/fonts/opentype/freefont/FreeSansOblique.otf
p620
sg20
g21
sbag1
(g8
g3
NtRp621
(dp622
g11
g53
sg13
VDroid Serif
p623
sg15
I700
sg16
g12
sg17
g12
sg18
V/usr/share/fonts/truetype/droid/DroidSerif-BoldItalic.ttf
p624
sg20
g21
sbag1
(g8
g3
NtRp625
(dp626
g11
g53
sg13
VUbuntu
p627
sg15
I700
sg16
g12
sg17
g12
sg18
V/usr/share/fonts/truetype/ubuntu-font-family/Ubuntu-BI.ttf
p628
sg20
g21
sbag1
(g8
g3
NtRp629
(dp630
g11
g53
sg13
VLinux Libertine O
p631
sg15
I700
sg16
g12
sg17
g12
sg18
V/usr/share/fonts/opentype/linux-libertine/LinLibertine_RZI.otf
p632
sg20
g21
sbag1
(g8
g3
NtRp633
(dp634
g11
g53
sg13
VDejaVu Serif
p635
sg15
I400
sg16
g12
sg17
g12
sg18
V/usr/share/fonts/truetype/ttf-dejavu/DejaVuSerif-Italic.ttf
p636
sg20
g21
sbag1
(g8
g3
NtRp637
(dp638
g11
g12
sg13
VLiberation Sans Narrow
p639
sg15
I700
sg16
g311
sg17
g12
sg18
V/usr/share/fonts/truetype/liberation/LiberationSansNarrow-Bold.ttf
p640
sg20
g21
sbag1
(g8
g3
NtRp641
(dp642
g11
g53
sg13
VTrebuchet MS
p643
sg15
I700
sg16
g12
sg17
g12
sg18
V/usr/share/fonts/truetype/msttcorefonts/Trebuchet_MS_Bold_Italic.ttf
p644
sg20
g21
sbag1
(g8
g3
NtRp645
(dp646
g11
g53
sg13
VSTIXGeneral
p647
sg15
I400
sg16
g12
sg17
g12
sg18
V/usr/share/fonts/opentype/stix/STIXGeneral-Italic.otf
p648
sg20
g21
sbag1
(g8
g3
NtRp649
(dp650
g11
g12
sg13
VLinux Libertine O
p651
sg15
I400
sg16
g12
sg17
g12
sg18
V/usr/share/fonts/opentype/linux-libertine/LinLibertine_R.otf
p652
sg20
g21
sbag1
(g8
g3
NtRp653
(dp654
g11
g12
sg13
Vwasy10
p655
sg15
I400
sg16
g12
sg17
g12
sg18
V/usr/share/fonts/truetype/ttf-lyx/wasy10.ttf
p656
sg20
g21
sbag1
(g8
g3
NtRp657
(dp658
g11
g24
sg13
VDejaVu Sans
p659
sg15
I700
sg16
g311
sg17
g12
sg18
V/usr/share/fonts/truetype/ttf-dejavu/DejaVuSansCondensed-BoldOblique.ttf
p660
sg20
g21
sbag1
(g8
g3
NtRp661
(dp662
g11
g12
sg13
VDejaVu Sans
p663
sg15
I700
sg16
g311
sg17
g12
sg18
V/usr/share/fonts/truetype/ttf-dejavu/DejaVuSansCondensed-Bold.ttf
p664
sg20
g21
sbag1
(g8
g3
NtRp665
(dp666
g11
g12
sg13
VTlwgMono
p667
sg15
I700
sg16
g12
sg17
g12
sg18
V/usr/share/fonts/truetype/tlwg/TlwgMono-Bold.ttf
p668
sg20
g21
sbag1
(g8
g3
NtRp669
(dp670
g11
g53
sg13
VLiberation Mono
p671
sg15
I400
sg16
g12
sg17
g12
sg18
V/usr/share/fonts/truetype/liberation/LiberationMono-Italic.ttf
p672
sg20
g21
sbag1
(g8
g3
NtRp673
(dp674
g11
g53
sg13
VLiberation Serif
p675
sg15
I700
sg16
g12
sg17
g12
sg18
V/usr/share/fonts/truetype/liberation/LiberationSerif-BoldItalic.ttf
p676
sg20
g21
sbag1
(g8
g3
NtRp677
(dp678
g11
g12
sg13
VLiberation Serif
p679
sg15
I700
sg16
g12
sg17
g12
sg18
V/usr/share/fonts/truetype/liberation/LiberationSerif-Bold.ttf
p680
sg20
g21
sbag1
(g8
g3
NtRp681
(dp682
g11
g53
sg13
VSTIXGeneral
p683
sg15
I700
sg16
g12
sg17
g12
sg18
V/usr/share/fonts/opentype/stix/STIXGeneral-BoldItalic.otf
p684
sg20
g21
sbag1
(g8
g3
NtRp685
(dp686
g11
g12
sg13
VWaree
p687
sg15
I700
sg16
g12
sg17
g12
sg18
V/usr/share/fonts/truetype/tlwg/Waree-Bold.ttf
p688
sg20
g21
sbag1
(g8
g3
NtRp689
(dp690
g11
g12
sg13
VLinux Biolinum Shadow O
p691
sg15
I700
sg16
g12
sg17
g12
sg18
V/usr/share/fonts/opentype/linux-libertine/LinBiolinum_aWB.otf
p692
sg20
g21
sbag1
(g8
g3
NtRp693
(dp694
g11
g12
sg13
VComfortaa
p695
sg15
I400
sg16
g12
sg17
g12
sg18
V/usr/share/fonts/truetype/comfortaa/Comfortaa-Regular.ttf
p696
sg20
g21
sbag1
(g8
g3
NtRp697
(dp698
g11
g12
sg13
Vori1Uni
p699
sg15
I500
sg16
g12
sg17
g12
sg18
V/usr/share/fonts/truetype/ttf-indic-fonts-core/utkal.ttf
p700
sg20
g21
sbag1
(g8
g3
NtRp701
(dp702
g11
g12
sg13
VLinux Biolinum O
p703
sg15
I700
sg16
g12
sg17
g12
sg18
V/usr/share/fonts/opentype/linux-libertine/LinBiolinum_RB.otf
p704
sg20
g21
sbag1
(g8
g3
NtRp705
(dp706
g11
g12
sg13
VMukti Narrow
p707
sg15
I400
sg16
g12
sg17
g12
sg18
V/usr/share/fonts/truetype/ttf-indic-fonts-core/MuktiNarrow.ttf
p708
sg20
g21
sbag1
(g8
g3
NtRp709
(dp710
g11
g24
sg13
VFreeMono
p711
sg15
I700
sg16
g12
sg17
g12
sg18
V/usr/share/fonts/opentype/freefont/FreeMonoBoldOblique.otf
p712
sg20
g21
sbag1
(g8
g3
NtRp713
(dp714
g11
g12
sg13
VNorasi
p715
sg15
I700
sg16
g12
sg17
g12
sg18
V/usr/share/fonts/truetype/tlwg/Norasi-Bold.ttf
p716
sg20
g21
sbag1
(g8
g3
NtRp717
(dp718
g11
g53
sg13
VCourier New
p719
sg15
I700
sg16
g12
sg17
g12
sg18
V/usr/share/fonts/truetype/msttcorefonts/courbi.ttf
p720
sg20
g21
sbag1
(g8
g3
NtRp721
(dp722
g11
g24
sg13
VKinnari
p723
sg15
I700
sg16
g12
sg17
g12
sg18
V/usr/share/fonts/truetype/tlwg/Kinnari-BoldOblique.ttf
p724
sg20
g21
sbag1
(g8
g3
NtRp725
(dp726
g11
g12
sg13
VMallige
p727
sg15
I400
sg16
g12
sg17
g12
sg18
V/usr/share/fonts/truetype/ttf-indic-fonts-core/Malige-n.ttf
p728
sg20
g21
sbag1
(g8
g3
NtRp729
(dp730
g11
g12
sg13
VGeorgia
p731
sg15
I400
sg16
g12
sg17
g12
sg18
V/usr/share/fonts/truetype/msttcorefonts/georgia.ttf
p732
sg20
g21
sbag1
(g8
g3
NtRp733
(dp734
g11
g12
sg13
VKacstOne
p735
sg15
I400
sg16
g12
sg17
g12
sg18
V/usr/share/fonts/truetype/kacst-one/KacstOne.ttf
p736
sg20
g21
sbag1
(g8
g3
NtRp737
(dp738
g11
g12
sg13
VLohit Bengali
p739
sg15
I400
sg16
g12
sg17
g12
sg18
V/usr/share/fonts/truetype/ttf-indic-fonts-core/lohit_bn.ttf
p740
sg20
g21
sbag1
(g8
g3
NtRp741
(dp742
g11
g12
sg13
VFreeMono
p743
sg15
I700
sg16
g12
sg17
g12
sg18
V/usr/share/fonts/truetype/freefont/FreeMonoBold.ttf
p744
sg20
g21
sbag1
(g8
g3
NtRp745
(dp746
g11
g12
sg13
VKacstBook
p747
sg15
I400
sg16
g12
sg17
g12
sg18
V/usr/share/fonts/truetype/kacst/KacstBook.ttf
p748
sg20
g21
sbag1
(g8
g3
NtRp749
(dp750
g11
g53
sg13
VVerdana
p751
sg15
I700
sg16
g12
sg17
g12
sg18
V/usr/share/fonts/truetype/msttcorefonts/verdanaz.ttf
p752
sg20
g21
sbag1
(g8
g3
NtRp753
(dp754
g11
g53
sg13
VGeorgia
p755
sg15
I400
sg16
g12
sg17
g12
sg18
V/usr/share/fonts/truetype/msttcorefonts/georgiai.ttf
p756
sg20
g21
sbag1
(g8
g3
NtRp757
(dp758
g11
g12
sg13
VGFS Porson
p759
sg15
I400
sg16
g12
sg17
g12
sg18
V/usr/share/fonts/truetype/porson/GFSPorson.otf
p760
sg20
g21
sbag1
(g8
g3
NtRp761
(dp762
g11
g12
sg13
VGFS Neohellenic
p763
sg15
I700
sg16
g12
sg17
g12
sg18
V/usr/share/fonts/truetype/neohellenic/GFSNeohellenicBold.otf
p764
sg20
g21
sbag1
(g8
g3
NtRp765
(dp766
g11
g12
sg13
VPothana2000
p767
sg15
I400
sg16
g12
sg17
g12
sg18
V/usr/share/fonts/truetype/ttf-indic-fonts-core/Pothana2000.ttf
p768
sg20
g21
sbag1
(g8
g3
NtRp769
(dp770
g11
g53
sg13
VSTIXNonUnicode
p771
sg15
I400
sg16
g12
sg17
g12
sg18
V/usr/share/fonts/opentype/stix/STIXNonUnicode-Italic.otf
p772
sg20
g21
sbag1
(g8
g3
NtRp773
(dp774
g11
g12
sg13
VComfortaa
p775
sg15
I700
sg16
g12
sg17
g12
sg18
V/usr/share/fonts/truetype/comfortaa/Comfortaa-Bold.ttf
p776
sg20
g21
sbag1
(g8
g3
NtRp777
(dp778
g11
g12
sg13
VUnGungseo
p779
sg15
I400
sg16
g12
sg17
g12
sg18
V/usr/share/fonts/truetype/unfonts-core/UnGungseo.ttf
p780
sg20
g21
sbag1
(g8
g3
NtRp781
(dp782
g11
g53
sg13
VGentiumAlt
p783
sg15
I400
sg16
g12
sg17
g12
sg18
V/usr/share/fonts/truetype/gentium/GenAI102.ttf
p784
sg20
g21
sbag1
(g8
g3
NtRp785
(dp786
g11
g53
sg13
VLinux Biolinum Slanted O
p787
sg15
I700
sg16
g12
sg17
g12
sg18
V/usr/share/fonts/opentype/linux-libertine/LinBiolinum_aBL.otf
p788
sg20
g21
sbag1
(g8
g3
NtRp789
(dp790
g11
g12
sg13
VLinux Biolinum Capitals O
p791
sg15
I400
sg16
g12
sg17
g12
sg18
V/usr/share/fonts/opentype/linux-libertine/LinBiolinum_aS.otf
p792
sg20
g21
sbag1
(g8
g3
NtRp793
(dp794
g11
g12
sg13
VDroid Sans Arabic
p795
sg15
I400
sg16
g12
sg17
g12
sg18
V/usr/share/fonts/truetype/droid/DroidSansArabic.ttf
p796
sg20
g21
sbag1
(g8
g3
NtRp797
(dp798
g11
g12
sg13
VUbuntu
p799
sg15
I700
sg16
g12
sg17
g12
sg18
V/usr/share/fonts/truetype/ubuntu-font-family/Ubuntu-B.ttf
p800
sg20
g21
sbag1
(g8
g3
NtRp801
(dp802
g11
g24
sg13
VFreeSans
p803
sg15
I700
sg16
g12
sg17
g12
sg18
V/usr/share/fonts/truetype/freefont/FreeSansBoldOblique.ttf
p804
sg20
g21
sbag1
(g8
g3
NtRp805
(dp806
g11
g12
sg13
VSTIXNonUnicode
p807
sg15
I400
sg16
g12
sg17
g12
sg18
V/usr/share/fonts/opentype/stix/STIXNonUnicode-Regular.otf
p808
sg20
g21
sbag1
(g8
g3
NtRp809
(dp810
g11
g53
sg13
VUbuntu Mono
p811
sg15
I400
sg16
g12
sg17
g12
sg18
V/usr/share/fonts/truetype/ubuntu-font-family/UbuntuMono-RI.ttf
p812
sg20
g21
sbag1
(g8
g3
NtRp813
(dp814
g11
g12
sg13
VFreeSans
p815
sg15
I400
sg16
g12
sg17
g12
sg18
V/usr/share/fonts/truetype/freefont/FreeSans.ttf
p816
sg20
g21
sbag1
(g8
g3
NtRp817
(dp818
g11
g24
sg13
VKinnari
p819
sg15
I400
sg16
g12
sg17
g12
sg18
V/usr/share/fonts/truetype/tlwg/Kinnari-Oblique.ttf
p820
sg20
g21
sbag1
(g8
g3
NtRp821
(dp822
g11
g12
sg13
VUmpush
p823
sg15
I200
sg16
g12
sg17
g12
sg18
V/usr/share/fonts/truetype/tlwg/Umpush-Light.ttf
p824
sg20
g21
sbag1
(g8
g3
NtRp825
(dp826
g11
g12
sg13
VUnBatang
p827
sg15
I700
sg16
g12
sg17
g12
sg18
V/usr/share/fonts/truetype/unfonts-core/UnBatangBold.ttf
p828
sg20
g21
sbag1
(g8
g3
NtRp829
(dp830
g11
g24
sg13
VPurisa
p831
sg15
I700
sg16
g12
sg17
g12
sg18
V/usr/share/fonts/truetype/tlwg/Purisa-BoldOblique.ttf
p832
sg20
g21
sbag1
(g8
g3
NtRp833
(dp834
g11
g53
sg13
VGFS Didot
p835
sg15
I700
sg16
g12
sg17
g12
sg18
V/usr/share/fonts/truetype/artemisia/GFSArtemisiaBoldIt.otf
p836
sg20
g21
sbag1
(g8
g3
NtRp837
(dp838
g11
g53
sg13
VGeorgia
p839
sg15
I700
sg16
g12
sg17
g12
sg18
V/usr/share/fonts/truetype/msttcorefonts/georgiaz.ttf
p840
sg20
g21
sbag1
(g8
g3
NtRp841
(dp842
g11
g53
sg13
VGentium Basic
p843
sg15
I700
sg16
g12
sg17
g12
sg18
V/usr/share/fonts/truetype/gentium-basic/GenBasBI.ttf
p844
sg20
g21
sbag1
(g8
g3
NtRp845
(dp846
g11
g12
sg13
VLinux Biolinum Keyboard O
p847
sg15
I400
sg16
g12
sg17
g12
sg18
V/usr/share/fonts/opentype/linux-libertine/LinBiolinum_K.otf
p848
sg20
g21
sbag1
(g8
g3
NtRp849
(dp850
g11
g12
sg13
VIPAMincho
p851
sg15
I400
sg16
g12
sg17
g12
sg18
V/usr/share/fonts/opentype/ipafont-mincho/ipam.ttf
p852
sg20
g21
sbag1
(g8
g3
NtRp853
(dp854
g11
g24
sg13
VFreeMono
p855
sg15
I400
sg16
g12
sg17
g12
sg18
V/usr/share/fonts/truetype/freefont/FreeMonoOblique.ttf
p856
sg20
g21
sbag1
(g8
g3
NtRp857
(dp858
g11
g53
sg13
VSTIXNonUnicode
p859
sg15
I700
sg16
g12
sg17
g12
sg18
V/usr/share/fonts/opentype/stix/STIXNonUnicode-BoldItalic.otf
p860
sg20
g21
sbag1
(g8
g3
NtRp861
(dp862
g11
g12
sg13
VSTIXSizeTwoSym
p863
sg15
I400
sg16
g12
sg17
g12
sg18
V/usr/share/fonts/opentype/stix/STIXSizeTwoSym-Regular.otf
p864
sg20
g21
sbag1
(g8
g3
NtRp865
(dp866
g11
g12
sg13
VWebdings
p867
sg15
I400
sg16
g12
sg17
g12
sg18
V/usr/share/fonts/truetype/msttcorefonts/webdings.ttf
p868
sg20
g21
sbag1
(g8
g3
NtRp869
(dp870
g11
g12
sg13
VLiberation Sans Narrow
p871
sg15
I400
sg16
g311
sg17
g12
sg18
V/usr/share/fonts/truetype/liberation/LiberationSansNarrow-Regular.ttf
p872
sg20
g21
sbag1
(g8
g3
NtRp873
(dp874
g11
g53
sg13
VTrebuchet MS
p875
sg15
I400
sg16
g12
sg17
g12
sg18
V/usr/share/fonts/truetype/msttcorefonts/trebucit.ttf
p876
sg20
g21
sbag1
(g8
g3
NtRp877
(dp878
g11
g12
sg13
VSTIXVariants
p879
sg15
I700
sg16
g12
sg17
g12
sg18
V/usr/share/fonts/opentype/stix/STIXVariants-Bold.otf
p880
sg20
g21
sbag1
(g8
g3
NtRp881
(dp882
g11
g12
sg13
VComic Sans MS
p883
sg15
I400
sg16
g12
sg17
g12
sg18
V/usr/share/fonts/truetype/msttcorefonts/Comic_Sans_MS.ttf
p884
sg20
g21
sbag1
(g8
g3
NtRp885
(dp886
g11
g12
sg13
VSTIXIntegralsD
p887
sg15
I400
sg16
g12
sg17
g12
sg18
V/usr/share/fonts/opentype/stix/STIXIntegralsD-Regular.otf
p888
sg20
g21
sbag1
(g8
g3
NtRp889
(dp890
g11
g24
sg13
VSawasdee
p891
sg15
I400
sg16
g12
sg17
g12
sg18
V/usr/share/fonts/truetype/tlwg/Sawasdee-Oblique.ttf
p892
sg20
g21
sbag1
(g8
g3
NtRp893
(dp894
g11
g12
sg13
VSTIXIntegralsD
p895
sg15
I700
sg16
g12
sg17
g12
sg18
V/usr/share/fonts/opentype/stix/STIXIntegralsD-Bold.otf
p896
sg20
g21
sbag1
(g8
g3
NtRp897
(dp898
g11
g12
sg13
VKhmer OS
p899
sg15
I400
sg16
g12
sg17
g12
sg18
V/usr/share/fonts/truetype/ttf-khmeros-core/KhmerOS.ttf
p900
sg20
g21
sbag1
(g8
g3
NtRp901
(dp902
g11
g12
sg13
VDroid Sans Japanese
p903
sg15
I400
sg16
g12
sg17
g12
sg18
V/usr/share/fonts/truetype/droid/DroidSansJapanese.ttf
p904
sg20
g21
sbag1
(g8
g3
NtRp905
(dp906
g11
g12
sg13
VGFS BodoniClassic
p907
sg15
I400
sg16
g12
sg17
g12
sg18
V/usr/share/fonts/truetype/bodoni-classic/GFSBodoniClassic.otf
p908
sg20
g21
sbag1
(g8
g3
NtRp909
(dp910
g11
g12
sg13
VWaree
p911
sg15
I400
sg16
g12
sg17
g12
sg18
V/usr/share/fonts/truetype/tlwg/Waree.ttf
p912
sg20
g21
sbag1
(g8
g3
NtRp913
(dp914
g11
g12
sg13
VFreeMono
p915
sg15
I400
sg16
g12
sg17
g12
sg18
V/usr/share/fonts/truetype/freefont/FreeMono.ttf
p916
sg20
g21
sbag1
(g8
g3
NtRp917
(dp918
g11
g12
sg13
VSTIXIntegralsUpSm
p919
sg15
I700
sg16
g12
sg17
g12
sg18
V/usr/share/fonts/opentype/stix/STIXIntegralsUpSm-Bold.otf
p920
sg20
g21
sbag1
(g8
g3
NtRp921
(dp922
g11
g12
sg13
VLinux Libertine Initials O
p923
sg15
I400
sg16
g12
sg17
g12
sg18
V/usr/share/fonts/opentype/linux-libertine/LinLibertine_I.otf
p924
sg20
g21
sbag1
(g8
g3
NtRp925
(dp926
g11
g12
sg13
VUnPilgi
p927
sg15
I700
sg16
g12
sg17
g12
sg18
V/usr/share/fonts/truetype/unfonts-core/UnPilgiBold.ttf
p928
sg20
g21
sbag1
(g8
g3
NtRp929
(dp930
g11
g12
sg13
VLinux Biolinum Shadow O
p931
sg15
I400
sg16
g12
sg17
g12
sg18
V/usr/share/fonts/opentype/linux-libertine/LinBiolinum_aW.otf
p932
sg20
g21
sbag1
(g8
g3
NtRp933
(dp934
g11
g12
sg13
VTimes New Roman
p935
sg15
I500
sg16
g12
sg17
g12
sg18
V/usr/share/fonts/truetype/msttcorefonts/Times_New_Roman.ttf
p936
sg20
g21
sbag1
(g8
g3
NtRp937
(dp938
g11
g12
sg13
VDejaVu Sans Mono
p939
sg15
I400
sg16
g12
sg17
g12
sg18
V/usr/share/fonts/truetype/ttf-dejavu/DejaVuSansMono.ttf
p940
sg20
g21
sbag1
(g8
g3
NtRp941
(dp942
g11
g12
sg13
VLohit Punjabi
p943
sg15
I400
sg16
g12
sg17
g12
sg18
V/usr/share/fonts/truetype/ttf-punjabi-fonts/lohit_pa.ttf
p944
sg20
g21
sbag1
(g8
g3
NtRp945
(dp946
g11
g12
sg13
VLiberation Mono
p947
sg15
I700
sg16
g12
sg17
g12
sg18
V/usr/share/fonts/truetype/liberation/LiberationMono-Bold.ttf
p948
sg20
g21
sbag1
(g8
g3
NtRp949
(dp950
g11
g12
sg13
VGeorgia
p951
sg15
I700
sg16
g12
sg17
g12
sg18
V/usr/share/fonts/truetype/msttcorefonts/Georgia_Bold.ttf
p952
sg20
g21
sbag1
(g8
g3
NtRp953
(dp954
g11
g12
sg13
VFreeSerif
p955
sg15
I700
sg16
g12
sg17
g12
sg18
V/usr/share/fonts/truetype/freefont/FreeSerifBold.ttf
p956
sg20
g21
sbag1
(g8
g3
NtRp957
(dp958
g11
g12
sg13
VGFS Solomos
p959
sg15
I400
sg16
g12
sg17
g12
sg18
V/usr/share/fonts/truetype/solomos/GFSSolomos.otf
p960
sg20
g21
sbag1
(g8
g3
NtRp961
(dp962
g11
g12
sg13
VUntitled1
p963
sg15
I400
sg16
g12
sg17
g12
sg18
V/usr/share/fonts/opentype/freefont/Untitled1.otf
p964
sg20
g21
sbag1
(g8
g3
NtRp965
(dp966
g11
g12
sg13
VUbuntu Mono
p967
sg15
I400
sg16
g12
sg17
g12
sg18
V/usr/share/fonts/truetype/ubuntu-font-family/UbuntuMono-R.ttf
p968
sg20
g21
sbag1
(g8
g3
NtRp969
(dp970
g11
g12
sg13
VLohit Hindi
p971
sg15
I400
sg16
g12
sg17
g12
sg18
V/usr/share/fonts/truetype/ttf-indic-fonts-core/lohit_hi.ttf
p972
sg20
g21
sbag1
(g8
g3
NtRp973
(dp974
g11
g12
sg13
VCourier New
p975
sg15
I700
sg16
g12
sg17
g12
sg18
V/usr/share/fonts/truetype/msttcorefonts/Courier_New_Bold.ttf
p976
sg20
g21
sbag1
(g8
g3
NtRp977
(dp978
g11
g12
sg13
VMarVoSym
p979
sg15
I400
sg16
g12
sg17
g12
sg18
V/usr/share/fonts/truetype/ttf-marvosym/marvosym.ttf
p980
sg20
g21
sbag1
(g8
g3
NtRp981
(dp982
g11
g12
sg13
VUbuntu
p983
sg15
I400
sg16
g12
sg17
g12
sg18
V/usr/share/fonts/truetype/ubuntu-font-family/Ubuntu-R.ttf
p984
sg20
g21
sbag1
(g8
g3
NtRp985
(dp986
g11
g24
sg13
VTlwgMono
p987
sg15
I400
sg16
g12
sg17
g12
sg18
V/usr/share/fonts/truetype/tlwg/TlwgMono-Oblique.ttf
p988
sg20
g21
sbag1
(g8
g3
NtRp989
(dp990
g11
g12
sg13
VGeorgia
p991
sg15
I400
sg16
g12
sg17
g12
sg18
V/usr/share/fonts/truetype/msttcorefonts/Georgia.ttf
p992
sg20
g21
sbag1
(g8
g3
NtRp993
(dp994
g11
g12
sg13
VVerdana
p995
sg15
I400
sg16
g12
sg17
g12
sg18
V/usr/share/fonts/truetype/msttcorefonts/Verdana.ttf
p996
sg20
g21
sbag1
(g8
g3
NtRp997
(dp998
g11
g12
sg13
VNanumMyeongjo
p999
sg15
I700
sg16
g12
sg17
g12
sg18
V/usr/share/fonts/truetype/nanum/NanumMyeongjoBold.ttf
p1000
sg20
g21
sbag1
(g8
g3
NtRp1001
(dp1002
g11
g12
sg13
VPhetsarath OT
p1003
sg15
I400
sg16
g12
sg17
g12
sg18
V/usr/share/fonts/truetype/lao/Phetsarath_OT.ttf
p1004
sg20
g21
sbag1
(g8
g3
NtRp1005
(dp1006
g11
g24
sg13
VDejaVu Sans
p1007
sg15
I400
sg16
g311
sg17
g12
sg18
V/usr/share/fonts/truetype/ttf-dejavu/DejaVuSansCondensed-Oblique.ttf
p1008
sg20
g21
sbag1
(g8
g3
NtRp1009
(dp1010
g11
g12
sg13
VCourier New
p1011
sg15
I400
sg16
g12
sg17
g12
sg18
V/usr/share/fonts/truetype/msttcorefonts/cour.ttf
p1012
sg20
g21
sbag1
(g8
g3
NtRp1013
(dp1014
g11
g12
sg13
VTakaoPGothic
p1015
sg15
I400
sg16
g12
sg17
g12
sg18
V/usr/share/fonts/truetype/takao-gothic/TakaoPGothic.ttf
p1016
sg20
g21
sbag1
(g8
g3
NtRp1017
(dp1018
g11
g12
sg13
VDroid Sans
p1019
sg15
I400
sg16
g12
sg17
g12
sg18
V/usr/share/fonts/truetype/droid/DroidSans.ttf
p1020
sg20
g21
sbag1
(g8
g3
NtRp1021
(dp1022
g11
g53
sg13
VGFS Neohellenic
p1023
sg15
I400
sg16
g12
sg17
g12
sg18
V/usr/share/fonts/truetype/neohellenic/GFSNeohellenicIt.otf
p1024
sg20
g21
sbag1
(g8
g3
NtRp1025
(dp1026
g11
g12
sg13
VSTIXSizeFiveSym
p1027
sg15
I400
sg16
g12
sg17
g12
sg18
V/usr/share/fonts/opentype/stix/STIXSizeFiveSym-Regular.otf
p1028
sg20
g21
sbag1
(g8
g3
NtRp1029
(dp1030
g11
g12
sg13
VKedage
p1031
sg15
I700
sg16
g12
sg17
g12
sg18
V/usr/share/fonts/truetype/ttf-indic-fonts-core/Kedage-b.ttf
p1032
sg20
g21
sbag1
(g8
g3
NtRp1033
(dp1034
g11
g12
sg13
VDejaVu Serif
p1035
sg15
I700
sg16
g12
sg17
g12
sg18
V/usr/share/fonts/truetype/ttf-dejavu/DejaVuSerif-Bold.ttf
p1036
sg20
g21
sbag1
(g8
g3
NtRp1037
(dp1038
g11
g12
sg13
VDroid Sans Hebrew
p1039
sg15
I400
sg16
g12
sg17
g12
sg18
V/usr/share/fonts/truetype/droid/DroidSansHebrew.ttf
p1040
sg20
g21
sbag1
(g8
g3
NtRp1041
(dp1042
g11
g12
sg13
VCourier New
p1043
sg15
I400
sg16
g12
sg17
g12
sg18
V/usr/share/fonts/truetype/msttcorefonts/Courier_New.ttf
p1044
sg20
g21
sbag1
(g8
g3
NtRp1045
(dp1046
g11
g53
sg13
VNorasi
p1047
sg15
I700
sg16
g12
sg17
g12
sg18
V/usr/share/fonts/truetype/tlwg/Norasi-BoldItalic.ttf
p1048
sg20
g21
sbag1
(g8
g3
NtRp1049
(dp1050
g11
g12
sg13
VUmpush
p1051
sg15
I700
sg16
g12
sg17
g12
sg18
V/usr/share/fonts/truetype/tlwg/Umpush-Bold.ttf
p1052
sg20
g21
sbag1
(g8
g3
NtRp1053
(dp1054
g11
g53
sg13
VLinux Libertine Slanted O
p1055
sg15
I700
sg16
g12
sg17
g12
sg18
V/usr/share/fonts/opentype/linux-libertine/LinLibertine_aBL.otf
p1056
sg20
g21
sbag1
(g8
g3
NtRp1057
(dp1058
g11
g53
sg13
VLiberation Sans
p1059
sg15
I700
sg16
g12
sg17
g12
sg18
V/usr/share/fonts/truetype/liberation/LiberationSans-BoldItalic.ttf
p1060
sg20
g21
sbag1
(g8
g3
NtRp1061
(dp1062
g11
g12
sg13
VUnGraphic
p1063
sg15
I700
sg16
g12
sg17
g12
sg18
V/usr/share/fonts/truetype/unfonts-core/UnGraphicBold.ttf
p1064
sg20
g21
sbag1
(g8
g3
NtRp1065
(dp1066
g11
g24
sg13
VNorasi
p1067
sg15
I700
sg16
g12
sg17
g12
sg18
V/usr/share/fonts/truetype/tlwg/Norasi-BoldOblique.ttf
p1068
sg20
g21
sbag1
(g8
g3
NtRp1069
(dp1070
g11
g24
sg13
VDejaVu Sans Mono
p1071
sg15
I700
sg16
g12
sg17
g12
sg18
V/usr/share/fonts/truetype/ttf-dejavu/DejaVuSansMono-BoldOblique.ttf
p1072
sg20
g21
sbag1
(g8
g3
NtRp1073
(dp1074
g11
g12
sg13
VGFS Theokritos
p1075
sg15
I400
sg16
g12
sg17
g12
sg18
V/usr/share/fonts/truetype/theokritos/GFSTheokritos.otf
p1076
sg20
g21
sbag1
(g8
g3
NtRp1077
(dp1078
g11
g12
sg13
VDejaVu Sans
p1079
sg15
I700
sg16
g12
sg17
g12
sg18
V/usr/share/fonts/truetype/ttf-dejavu/DejaVuSans-Bold.ttf
p1080
sg20
g21
sbag1
(g8
g3
NtRp1081
(dp1082
g11
g12
sg13
VUbuntu
p1083
sg15
I200
sg16
g12
sg17
g12
sg18
V/usr/share/fonts/truetype/ubuntu-font-family/Ubuntu-L.ttf
p1084
sg20
g21
sbag1
(g8
g3
NtRp1085
(dp1086
g11
g12
sg13
VLinux Libertine O
p1087
sg15
I700
sg16
g12
sg17
g12
sg18
V/usr/share/fonts/opentype/linux-libertine/LinLibertine_RB.otf
p1088
sg20
g21
sbag1
(g8
g3
NtRp1089
(dp1090
g11
g12
sg13
VKacstFarsi
p1091
sg15
I400
sg16
g12
sg17
g12
sg18
V/usr/share/fonts/truetype/kacst/KacstFarsi.ttf
p1092
sg20
g21
sbag1
(g8
g3
NtRp1093
(dp1094
g11
g12
sg13
VDroid Sans Fallback
p1095
sg15
I400
sg16
g12
sg17
g12
sg18
V/usr/share/fonts/truetype/droid/DroidSansFallback.ttf
p1096
sg20
g21
sbag1
(g8
g3
NtRp1097
(dp1098
g11
g12
sg13
VAndale Mono
p1099
sg15
I400
sg16
g12
sg17
g12
sg18
V/usr/share/fonts/truetype/msttcorefonts/Andale_Mono.ttf
p1100
sg20
g21
sbag1
(g8
g3
NtRp1101
(dp1102
g11
g53
sg13
VCourier New
p1103
sg15
I400
sg16
g12
sg17
g12
sg18
V/usr/share/fonts/truetype/msttcorefonts/Courier_New_Italic.ttf
p1104
sg20
g21
sbag1
(g8
g3
NtRp1105
(dp1106
g11
g24
sg13
VLoma
p1107
sg15
I700
sg16
g12
sg17
g12
sg18
V/usr/share/fonts/truetype/tlwg/Loma-BoldOblique.ttf
p1108
sg20
g21
sbag1
(g8
g3
NtRp1109
(dp1110
g11
g12
sg13
VTlwgTypewriter
p1111
sg15
I400
sg16
g12
sg17
g12
sg18
V/usr/share/fonts/truetype/tlwg/TlwgTypewriter.ttf
p1112
sg20
g21
sbag1
(g8
g3
NtRp1113
(dp1114
g11
g12
sg13
Vgargi
p1115
sg15
I400
sg16
g12
sg17
g12
sg18
V/usr/share/fonts/truetype/ttf-indic-fonts-core/gargi.ttf
p1116
sg20
g21
sbag1
(g8
g3
NtRp1117
(dp1118
g11
g12
sg13
VIPAPGothic
p1119
sg15
I400
sg16
g12
sg17
g12
sg18
V/usr/share/fonts/opentype/ipafont-gothic/ipagp.ttf
p1120
sg20
g21
sbag1
(g8
g3
NtRp1121
(dp1122
g11
g53
sg13
VGFS Artemisia
p1123
sg15
I400
sg16
g12
sg17
g12
sg18
V/usr/share/fonts/truetype/artemisia/GFSArtemisiaIt.otf
p1124
sg20
g21
sbag1
(g8
g3
NtRp1125
(dp1126
g11
g53
sg13
VDejaVu Serif
p1127
sg15
I400
sg16
g311
sg17
g12
sg18
V/usr/share/fonts/truetype/ttf-dejavu/DejaVuSerifCondensed-Italic.ttf
p1128
sg20
g21
sbag1
(g8
g3
NtRp1129
(dp1130
g11
g12
sg13
VArial Black
p1131
sg15
I900
sg16
g12
sg17
g12
sg18
V/usr/share/fonts/truetype/msttcorefonts/Arial_Black.ttf
p1132
sg20
g21
sbag1
(g8
g3
NtRp1133
(dp1134
g11
g12
sg13
VGFS Didot
p1135
sg15
I700
sg16
g12
sg17
g12
sg18
V/usr/share/fonts/truetype/didot/GFSDidotBold.otf
p1136
sg20
g21
sbag1
(g8
g3
NtRp1137
(dp1138
g11
g12
sg13
VWebdings
p1139
sg15
I400
sg16
g12
sg17
g12
sg18
V/usr/share/fonts/truetype/msttcorefonts/Webdings.ttf
p1140
sg20
g21
sbag1
(g8
g3
NtRp1141
(dp1142
g11
g12
sg13
VUnDotum
p1143
sg15
I700
sg16
g12
sg17
g12
sg18
V/usr/share/fonts/truetype/unfonts-core/UnDotumBold.ttf
p1144
sg20
g21
sbag1
(g8
g3
NtRp1145
(dp1146
g11
g12
sg13
VAsana Math
p1147
sg15
I400
sg16
g12
sg17
g12
sg18
V/usr/share/fonts/truetype/asana-math/Asana-Math.otf
p1148
sg20
g21
sbag1
(g8
g3
NtRp1149
(dp1150
g11
g53
sg13
VArial
p1151
sg15
I400
sg16
g12
sg17
g12
sg18
V/usr/share/fonts/truetype/msttcorefonts/ariali.ttf
p1152
sg20
g21
sbag1
(g8
g3
NtRp1153
(dp1154
g11
g12
sg13
VGFS Gazis
p1155
sg15
I400
sg16
g12
sg17
g12
sg18
V/usr/share/fonts/truetype/gazis/GFSGazis.otf
p1156
sg20
g21
sbag1
(g8
g3
NtRp1157
(dp1158
g11
g53
sg13
VTrebuchet MS
p1159
sg15
I700
sg16
g12
sg17
g12
sg18
V/usr/share/fonts/truetype/msttcorefonts/trebucbi.ttf
p1160
sg20
g21
sbag1
(g8
g3
NtRp1161
(dp1162
g11
g12
sg13
VKacstArt
p1163
sg15
I400
sg16
g12
sg17
g12
sg18
V/usr/share/fonts/truetype/kacst/KacstArt.ttf
p1164
sg20
g21
sbag1
(g8
g3
NtRp1165
(dp1166
g11
g53
sg13
VLiberation Sans Narrow
p1167
sg15
I700
sg16
g311
sg17
g12
sg18
V/usr/share/fonts/truetype/liberation/LiberationSansNarrow-BoldItalic.ttf
p1168
sg20
g21
sbag1
(g8
g3
NtRp1169
(dp1170
g11
g53
sg13
VTimes New Roman
p1171
sg15
I500
sg16
g12
sg17
g12
sg18
V/usr/share/fonts/truetype/msttcorefonts/timesi.ttf
p1172
sg20
g21
sbag1
(g8
g3
NtRp1173
(dp1174
g11
g53
sg13
VTimes New Roman
p1175
sg15
I500
sg16
g12
sg17
g12
sg18
V/usr/share/fonts/truetype/msttcorefonts/Times_New_Roman_Italic.ttf
p1176
sg20
g21
sbag1
(g8
g3
NtRp1177
(dp1178
g11
g12
sg13
VSTIXIntegralsSm
p1179
sg15
I700
sg16
g12
sg17
g12
sg18
V/usr/share/fonts/opentype/stix/STIXIntegralsSm-Bold.otf
p1180
sg20
g21
sbag1
(g8
g3
NtRp1181
(dp1182
g11
g12
sg13
VLiberation Sans
p1183
sg15
I400
sg16
g12
sg17
g12
sg18
V/usr/share/fonts/truetype/liberation/LiberationSans-Regular.ttf
p1184
sg20
g21
sbag1
(g8
g3
NtRp1185
(dp1186
g11
g12
sg13
VUbuntu Mono
p1187
sg15
I700
sg16
g12
sg17
g12
sg18
V/usr/share/fonts/truetype/ubuntu-font-family/UbuntuMono-B.ttf
p1188
sg20
g21
sbag1
(g8
g3
NtRp1189
(dp1190
g11
g12
sg13
VSTIXSizeTwoSym
p1191
sg15
I700
sg16
g12
sg17
g12
sg18
V/usr/share/fonts/opentype/stix/STIXSizeTwoSym-Bold.otf
p1192
sg20
g21
sbag1
(g8
g3
NtRp1193
(dp1194
g11
g53
sg13
VCourier New
p1195
sg15
I700
sg16
g12
sg17
g12
sg18
V/usr/share/fonts/truetype/msttcorefonts/Courier_New_Bold_Italic.ttf
p1196
sg20
g21
sbag1
(g8
g3
NtRp1197
(dp1198
g11
g12
sg13
VIPAexMincho
p1199
sg15
I400
sg16
g12
sg17
g12
sg18
V/usr/share/fonts/opentype/ipaexfont-mincho/ipaexm.ttf
p1200
sg20
g21
sbag1
(g8
g3
NtRp1201
(dp1202
g11
g12
sg13
VRachana
p1203
sg15
I400
sg16
g12
sg17
g12
sg18
V/usr/share/fonts/truetype/ttf-indic-fonts-core/Rachana_04.ttf
p1204
sg20
g21
sbag1
(g8
g3
NtRp1205
(dp1206
g11
g12
sg13
VKinnari
p1207
sg15
I700
sg16
g12
sg17
g12
sg18
V/usr/share/fonts/truetype/tlwg/Kinnari-Bold.ttf
p1208
sg20
g21
sbag1
(g8
g3
NtRp1209
(dp1210
g11
g12
sg13
VIPAexGothic
p1211
sg15
I400
sg16
g12
sg17
g12
sg18
V/usr/share/fonts/opentype/ipaexfont-gothic/ipaexg.ttf
p1212
sg20
g21
sbag1
(g8
g3
NtRp1213
(dp1214
g11
g24
sg13
VTlwgTypewriter
p1215
sg15
I700
sg16
g12
sg17
g12
sg18
V/usr/share/fonts/truetype/tlwg/TlwgTypewriter-BoldOblique.ttf
p1216
sg20
g21
sbag1
(g8
g3
NtRp1217
(dp1218
g11
g53
sg13
VGentium Book Basic
p1219
sg15
I400
sg16
g12
sg17
g12
sg18
V/usr/share/fonts/truetype/gentium-basic/GenBkBasI.ttf
p1220
sg20
g21
sbag1
(g8
g3
NtRp1221
(dp1222
g11
g12
sg13
VFreeSerif
p1223
sg15
I400
sg16
g12
sg17
g12
sg18
V/usr/share/fonts/truetype/freefont/FreeSerif.ttf
p1224
sg20
g21
sbag1
(g8
g3
NtRp1225
(dp1226
g11
g24
sg13
VSawasdee
p1227
sg15
I700
sg16
g12
sg17
g12
sg18
V/usr/share/fonts/truetype/tlwg/Sawasdee-BoldOblique.ttf
p1228
sg20
g21
sbag1
(g8
g3
NtRp1229
(dp1230
g11
g12
sg13
VSawasdee
p1231
sg15
I700
sg16
g12
sg17
g12
sg18
V/usr/share/fonts/truetype/tlwg/Sawasdee-Bold.ttf
p1232
sg20
g21
sbag1
(g8
g3
NtRp1233
(dp1234
g11
g12
sg13
VSTIXIntegralsSm
p1235
sg15
I400
sg16
g12
sg17
g12
sg18
V/usr/share/fonts/opentype/stix/STIXIntegralsSm-Regular.otf
p1236
sg20
g21
sbag1
(g8
g3
NtRp1237
(dp1238
g11
g12
sg13
VDroid Sans Thai
p1239
sg15
I400
sg16
g12
sg17
g12
sg18
V/usr/share/fonts/truetype/droid/DroidSansThai.ttf
p1240
sg20
g21
sbag1
(g8
g3
NtRp1241
(dp1242
g11
g12
sg13
VLohit Gujarati
p1243
sg15
I400
sg16
g12
sg17
g12
sg18
V/usr/share/fonts/truetype/ttf-indic-fonts-core/lohit_gu.ttf
p1244
sg20
g21
sbag1
(g8
g3
NtRp1245
(dp1246
g11
g12
sg13
VNanumMyeongjo
p1247
sg15
I400
sg16
g12
sg17
g12
sg18
V/usr/share/fonts/truetype/nanum/NanumMyeongjo.ttf
p1248
sg20
g21
sbag1
(g8
g3
NtRp1249
(dp1250
g11
g12
sg13
VSTIXGeneral
p1251
sg15
I700
sg16
g12
sg17
g12
sg18
V/usr/share/fonts/opentype/stix/STIXGeneral-Bold.otf
p1252
sg20
g21
sbag1
(g8
g3
NtRp1253
(dp1254
g11
g12
sg13
VGFS Complutum
p1255
sg15
I400
sg16
g12
sg17
g12
sg18
V/usr/share/fonts/truetype/complutum/GFSPolyglot.otf
p1256
sg20
g21
sbag1
(g8
g3
NtRp1257
(dp1258
g11
g12
sg13
VLoma
p1259
sg15
I700
sg16
g12
sg17
g12
sg18
V/usr/share/fonts/truetype/tlwg/Loma-Bold.ttf
p1260
sg20
g21
sbag1
(g8
g3
NtRp1261
(dp1262
g11
g12
sg13
VKacstPen
p1263
sg15
I400
sg16
g12
sg17
g12
sg18
V/usr/share/fonts/truetype/kacst/KacstPen.ttf
p1264
sg20
g21
sbag1
(g8
g3
NtRp1265
(dp1266
g11
g12
sg13
VSTIXSizeFourSym
p1267
sg15
I400
sg16
g12
sg17
g12
sg18
V/usr/share/fonts/opentype/stix/STIXSizeFourSym-Regular.otf
p1268
sg20
g21
sbag1
(g8
g3
NtRp1269
(dp1270
g11
g12
sg13
Vmsam10
p1271
sg15
I400
sg16
g12
sg17
g12
sg18
V/usr/share/fonts/truetype/ttf-lyx/msam10.ttf
p1272
sg20
g21
sbag1
(g8
g3
NtRp1273
(dp1274
g11
g12
sg13
VTrebuchet MS
p1275
sg15
I700
sg16
g12
sg17
g12
sg18
V/usr/share/fonts/truetype/msttcorefonts/trebucbd.ttf
p1276
sg20
g21
sbag1
(g8
g3
NtRp1277
(dp1278
g11
g53
sg13
VLinux Libertine O
p1279
sg15
I700
sg16
g12
sg17
g12
sg18
V/usr/share/fonts/opentype/linux-libertine/LinLibertine_RBI.otf
p1280
sg20
g21
sbag1
(g8
g3
NtRp1281
(dp1282
g11
g12
sg13
VIPAPMincho
p1283
sg15
I400
sg16
g12
sg17
g12
sg18
V/usr/share/fonts/opentype/ipafont-mincho/ipamp.ttf
p1284
sg20
g21
sbag1
(g8
g3
NtRp1285
(dp1286
g11
g12
sg13
VGeorgia
p1287
sg15
I700
sg16
g12
sg17
g12
sg18
V/usr/share/fonts/truetype/msttcorefonts/georgiab.ttf
p1288
sg20
g21
sbag1
(g8
g3
NtRp1289
(dp1290
g11
g53
sg13
VFreeSerif
p1291
sg15
I400
sg16
g12
sg17
g12
sg18
V/usr/share/fonts/truetype/freefont/FreeSerifItalic.ttf
p1292
sg20
g21
sbag1
(g8
g3
NtRp1293
(dp1294
g11
g12
sg13
VKacstDecorative
p1295
sg15
I400
sg16
g12
sg17
g12
sg18
V/usr/share/fonts/truetype/kacst/KacstDecorative.ttf
p1296
sg20
g21
sbag1
(g8
g3
NtRp1297
(dp1298
g11
g53
sg13
VLiberation Sans Narrow
p1299
sg15
I400
sg16
g311
sg17
g12
sg18
V/usr/share/fonts/truetype/liberation/LiberationSansNarrow-Italic.ttf
p1300
sg20
g21
sbag1
(g8
g3
NtRp1301
(dp1302
g11
g12
sg13
VMallige
p1303
sg15
I700
sg16
g12
sg17
g12
sg18
V/usr/share/fonts/truetype/ttf-indic-fonts-core/Malige-b.ttf
p1304
sg20
g21
sbag1
(g8
g3
NtRp1305
(dp1306
g11
g53
sg13
VVerdana
p1307
sg15
I400
sg16
g12
sg17
g12
sg18
V/usr/share/fonts/truetype/msttcorefonts/verdanai.ttf
p1308
sg20
g21
sbag1
(g8
g3
NtRp1309
(dp1310
g11
g12
sg13
VDejaVu Sans
p1311
sg15
I400
sg16
g311
sg17
g12
sg18
V/usr/share/fonts/truetype/ttf-dejavu/DejaVuSansCondensed.ttf
p1312
sg20
g21
sbag1
(g8
g3
NtRp1313
(dp1314
g11
g12
sg13
VSTIXIntegralsUpSm
p1315
sg15
I400
sg16
g12
sg17
g12
sg18
V/usr/share/fonts/opentype/stix/STIXIntegralsUpSm-Regular.otf
p1316
sg20
g21
sbag1
(g8
g3
NtRp1317
(dp1318
g11
g53
sg13
VJunicode
p1319
sg15
I400
sg16
g12
sg17
g12
sg18
V/usr/share/fonts/truetype/junicode/Junicode-Italic.ttf
p1320
sg20
g21
sbag1
(g8
g3
NtRp1321
(dp1322
g11
g12
sg13
VFreeMono
p1323
sg15
I400
sg16
g12
sg17
g12
sg18
V/usr/share/fonts/opentype/freefont/FreeMono.otf
p1324
sg20
g21
sbag1
(g8
g3
NtRp1325
(dp1326
g11
g12
sg13
VDroid Serif
p1327
sg15
I700
sg16
g12
sg17
g12
sg18
V/usr/share/fonts/truetype/droid/DroidSerif-Bold.ttf
p1328
sg20
g21
sbag1
(g8
g3
NtRp1329
(dp1330
g11
g12
sg13
VMeera
p1331
sg15
I400
sg16
g12
sg17
g12
sg18
V/usr/share/fonts/truetype/ttf-indic-fonts-core/Meera_04.ttf
p1332
sg20
g21
sbag1
(g8
g3
NtRp1333
(dp1334
g11
g24
sg13
VUmpush
p1335
sg15
I200
sg16
g12
sg17
g12
sg18
V/usr/share/fonts/truetype/tlwg/Umpush-LightOblique.ttf
p1336
sg20
g21
sbag1
(g8
g3
NtRp1337
(dp1338
g11
g12
sg13
VTlwg Typo
p1339
sg15
I400
sg16
g12
sg17
g12
sg18
V/usr/share/fonts/truetype/tlwg/TlwgTypo.ttf
p1340
sg20
g21
sbag1
(g8
g3
NtRp1341
(dp1342
g11
g12
sg13
VGentium
p1343
sg15
I400
sg16
g12
sg17
g12
sg18
V/usr/share/fonts/truetype/gentium/GenR102.ttf
p1344
sg20
g21
sbag1
(g8
g3
NtRp1345
(dp1346
g11
g12
sg13
VDejaVu Serif
p1347
sg15
I400
sg16
g12
sg17
g12
sg18
V/usr/share/fonts/truetype/ttf-dejavu/DejaVuSerif.ttf
p1348
sg20
g21
sbag1
(g8
g3
NtRp1349
(dp1350
g11
g24
sg13
VFreeSans
p1351
sg15
I400
sg16
g12
sg17
g12
sg18
V/usr/share/fonts/truetype/freefont/FreeSansOblique.ttf
p1352
sg20
g21
sbag1
(g8
g3
NtRp1353
(dp1354
g11
g12
sg13
VGentium Basic
p1355
sg15
I700
sg16
g12
sg17
g12
sg18
V/usr/share/fonts/truetype/gentium-basic/GenBasB.ttf
p1356
sg20
g21
sbag1
(g8
g3
NtRp1357
(dp1358
g11
g12
sg13
VLiberation Sans
p1359
sg15
I700
sg16
g12
sg17
g12
sg18
V/usr/share/fonts/truetype/liberation/LiberationSans-Bold.ttf
p1360
sg20
g21
sbag1
(g8
g3
NtRp1361
(dp1362
g11
g12
sg13
VLiberation Mono
p1363
sg15
I400
sg16
g12
sg17
g12
sg18
V/usr/share/fonts/truetype/liberation/LiberationMono-Regular.ttf
p1364
sg20
g21
sbag1
(g8
g3
NtRp1365
(dp1366
g11
g12
sg13
VSTIXVariants
p1367
sg15
I400
sg16
g12
sg17
g12
sg18
V/usr/share/fonts/opentype/stix/STIXVariants-Regular.otf
p1368
sg20
g21
sbag1
(g8
g3
NtRp1369
(dp1370
g11
g53
sg13
VTimes New Roman
p1371
sg15
I700
sg16
g12
sg17
g12
sg18
V/usr/share/fonts/truetype/msttcorefonts/Times_New_Roman_Bold_Italic.ttf
p1372
sg20
g21
sbag1
(g8
g3
NtRp1373
(dp1374
g11
g12
sg13
VGentium Book Basic
p1375
sg15
I700
sg16
g12
sg17
g12
sg18
V/usr/share/fonts/truetype/gentium-basic/GenBkBasB.ttf
p1376
sg20
g21
sbag1
(g8
g3
NtRp1377
(dp1378
g11
g12
sg13
VGaruda
p1379
sg15
I400
sg16
g12
sg17
g12
sg18
V/usr/share/fonts/truetype/tlwg/Garuda.ttf
p1380
sg20
g21
sbag1
(g8
g3
NtRp1381
(dp1382
g11
g12
sg13
Vmry_KacstQurn
p1383
sg15
I400
sg16
g12
sg17
g12
sg18
V/usr/share/fonts/truetype/kacst/mry_KacstQurn.ttf
p1384
sg20
g21
sbag1
(g8
g3
NtRp1385
(dp1386
g11
g12
sg13
Vmsbm10
p1387
sg15
I400
sg16
g12
sg17
g12
sg18
V/usr/share/fonts/truetype/ttf-lyx/msbm10.ttf
p1388
sg20
g21
sbag1
(g8
g3
NtRp1389
(dp1390
g11
g12
sg13
VKacstOne
p1391
sg15
I700
sg16
g12
sg17
g12
sg18
V/usr/share/fonts/truetype/kacst-one/KacstOne-Bold.ttf
p1392
sg20
g21
sbag1
(g8
g3
NtRp1393
(dp1394
g11
g12
sg13
VLinux Libertine Display O
p1395
sg15
I400
sg16
g12
sg17
g12
sg18
V/usr/share/fonts/opentype/linux-libertine/LinLibertine_DR.otf
p1396
sg20
g21
sbag1
(g8
g3
NtRp1397
(dp1398
g11
g12
sg13
VUnGraphic
p1399
sg15
I400
sg16
g12
sg17
g12
sg18
V/usr/share/fonts/truetype/unfonts-core/UnGraphic.ttf
p1400
sg20
g21
sbag1
(g8
g3
NtRp1401
(dp1402
g11
g53
sg13
VLinux Libertine Slanted O
p1403
sg15
I400
sg16
g12
sg17
g12
sg18
V/usr/share/fonts/opentype/linux-libertine/LinLibertine_aRL.otf
p1404
sg20
g21
sbag1
(g8
g3
NtRp1405
(dp1406
g11
g12
sg13
VKacstDigital
p1407
sg15
I400
sg16
g12
sg17
g12
sg18
V/usr/share/fonts/truetype/kacst/KacstDigital.ttf
p1408
sg20
g21
sbag1
(g8
g3
NtRp1409
(dp1410
g11
g24
sg13
VFreeMono
p1411
sg15
I400
sg16
g12
sg17
g12
sg18
V/usr/share/fonts/opentype/freefont/FreeMonoOblique.otf
p1412
sg20
g21
sbag1
(g8
g3
NtRp1413
(dp1414
g11
g53
sg13
VDejaVu Serif
p1415
sg15
I700
sg16
g12
sg17
g12
sg18
V/usr/share/fonts/truetype/ttf-dejavu/DejaVuSerif-BoldItalic.ttf
p1416
sg20
g21
sbag1
(g8
g3
NtRp1417
(dp1418
g11
g12
sg13
VSTIXIntegralsUpD
p1419
sg15
I400
sg16
g12
sg17
g12
sg18
V/usr/share/fonts/opentype/stix/STIXIntegralsUpD-Regular.otf
p1420
sg20
g21
sbag1
(g8
g3
NtRp1421
(dp1422
g11
g53
sg13
VJunicode
p1423
sg15
I700
sg16
g12
sg17
g12
sg18
V/usr/share/fonts/truetype/junicode/Junicode-BoldItalic.ttf
p1424
sg20
g21
sbag1
(g8
g3
NtRp1425
(dp1426
g11
g53
sg13
VLinux Biolinum Capitals O
p1427
sg15
I400
sg16
g12
sg17
g12
sg18
V/usr/share/fonts/opentype/linux-libertine/LinBiolinum_aSI.otf
p1428
sg20
g21
sbag1
(g8
g3
NtRp1429
(dp1430
g11
g12
sg13
VComic Sans MS
p1431
sg15
I700
sg16
g12
sg17
g12
sg18
V/usr/share/fonts/truetype/msttcorefonts/comicbd.ttf
p1432
sg20
g21
sbag1
(g8
g3
NtRp1433
(dp1434
g11
g53
sg13
VVerdana
p1435
sg15
I400
sg16
g12
sg17
g12
sg18
V/usr/share/fonts/truetype/msttcorefonts/Verdana_Italic.ttf
p1436
sg20
g21
sbag1
(g8
g3
NtRp1437
(dp1438
g11
g53
sg13
VDejaVu Serif
p1439
sg15
I700
sg16
g311
sg17
g12
sg18
V/usr/share/fonts/truetype/ttf-dejavu/DejaVuSerifCondensed-BoldItalic.ttf
p1440
sg20
g21
sbag1
(g8
g3
NtRp1441
(dp1442
g11
g12
sg13
VGFS Baskerville
p1443
sg15
I400
sg16
g12
sg17
g12
sg18
V/usr/share/fonts/truetype/baskerville/GFSBaskerville.otf
p1444
sg20
g21
sbag1
(g8
g3
NtRp1445
(dp1446
g11
g12
sg13
VVerdana
p1447
sg15
I400
sg16
g12
sg17
g12
sg18
V/usr/share/fonts/truetype/msttcorefonts/verdana.ttf
p1448
sg20
g21
sbag1
(g8
g3
NtRp1449
(dp1450
g11
g53
sg13
VLinux Biolinum Slanted O
p1451
sg15
I400
sg16
g12
sg17
g12
sg18
V/usr/share/fonts/opentype/linux-libertine/LinBiolinum_aRL.otf
p1452
sg20
g21
sbag1
(g8
g3
NtRp1453
(dp1454
g11
g12
sg13
VDejaVu Sans
p1455
sg15
I200
sg16
g12
sg17
g12
sg18
V/usr/share/fonts/truetype/ttf-dejavu/DejaVuSans-ExtraLight.ttf
p1456
sg20
g21
sbag1
(g8
g3
NtRp1457
(dp1458
g11
g12
sg13
VAmiri
p1459
sg15
I400
sg16
g12
sg17
g12
sg18
V/usr/share/fonts/opentype/fonts-hosny-amiri/amiri-regular.ttf
p1460
sg20
g21
sbag1
(g8
g3
NtRp1461
(dp1462
g11
g12
sg13
VLinux Biolinum Outline O
p1463
sg15
I700
sg16
g12
sg17
g12
sg18
V/usr/share/fonts/opentype/linux-libertine/LinBiolinum_aUB.otf
p1464
sg20
g21
sbag1
(g8
g3
NtRp1465
(dp1466
g11
g12
sg13
VComic Sans MS
p1467
sg15
I700
sg16
g12
sg17
g12
sg18
V/usr/share/fonts/truetype/msttcorefonts/Comic_Sans_MS_Bold.ttf
p1468
sg20
g21
sbag1
(g8
g3
NtRp1469
(dp1470
g11
g12
sg13
VIPAGothic
p1471
sg15
I400
sg16
g12
sg17
g12
sg18
V/usr/share/fonts/opentype/ipafont-gothic/ipag.ttf
p1472
sg20
g21
sbag1
(g8
g3
NtRp1473
(dp1474
g11
g53
sg13
VLinux Libertine O
p1475
sg15
I400
sg16
g12
sg17
g12
sg18
V/usr/share/fonts/opentype/linux-libertine/LinLibertine_RI.otf
p1476
sg20
g21
sbag1
(g8
g3
NtRp1477
(dp1478
g11
g12
sg13
VLinux Biolinum O
p1479
sg15
I400
sg16
g12
sg17
g12
sg18
V/usr/share/fonts/opentype/linux-libertine/LinBiolinum_R.otf
p1480
sg20
g21
sbag1
(g8
g3
NtRp1481
(dp1482
g11
g53
sg13
VCourier New
p1483
sg15
I400
sg16
g12
sg17
g12
sg18
V/usr/share/fonts/truetype/msttcorefonts/couri.ttf
p1484
sg20
g21
sbag1
(g8
g3
NtRp1485
(dp1486
g11
g12
sg13
VRekha
p1487
sg15
I400
sg16
g12
sg17
g12
sg18
V/usr/share/fonts/truetype/ttf-indic-fonts-core/Rekha.ttf
p1488
sg20
g21
sbag1
(g8
g3
NtRp1489
(dp1490
g11
g12
sg13
VLinux Biolinum Capitals O
p1491
sg15
I700
sg16
g12
sg17
g12
sg18
V/usr/share/fonts/opentype/linux-libertine/LinBiolinum_aSB.otf
p1492
sg20
g21
sbag1
(g8
g3
NtRp1493
(dp1494
g11
g12
sg13
Vesint10
p1495
sg15
I400
sg16
g12
sg17
g12
sg18
V/usr/share/fonts/truetype/ttf-lyx/esint10.ttf
p1496
sg20
g21
sbag1
(g8
g3
NtRp1497
(dp1498
g11
g12
sg13
VArial Black
p1499
sg15
I900
sg16
g12
sg17
g12
sg18
V/usr/share/fonts/truetype/msttcorefonts/ariblk.ttf
p1500
sg20
g21
sbag1
(g8
g3
NtRp1501
(dp1502
g11
g53
sg13
VVerdana
p1503
sg15
I700
sg16
g12
sg17
g12
sg18
V/usr/share/fonts/truetype/msttcorefonts/Verdana_Bold_Italic.ttf
p1504
sg20
g21
sbag1
(g8
g3
NtRp1505
(dp1506
g11
g12
sg13
VJunicode
p1507
sg15
I400
sg16
g12
sg17
g12
sg18
V/usr/share/fonts/truetype/junicode/Junicode-Regular.ttf
p1508
sg20
g21
sbag1
(g8
g3
NtRp1509
(dp1510
g11
g12
sg13
VGentiumAlt
p1511
sg15
I400
sg16
g12
sg17
g12
sg18
V/usr/share/fonts/truetype/gentium/GenAR102.ttf
p1512
sg20
g21
sbag1
(g8
g3
NtRp1513
(dp1514
g11
g12
sg13
VVerdana
p1515
sg15
I700
sg16
g12
sg17
g12
sg18
V/usr/share/fonts/truetype/msttcorefonts/Verdana_Bold.ttf
p1516
sg20
g21
sbag1
(g8
g3
NtRp1517
(dp1518
g11
g24
sg13
VUmpush
p1519
sg15
I700
sg16
g12
sg17
g12
sg18
V/usr/share/fonts/truetype/tlwg/Umpush-BoldOblique.ttf
p1520
sg20
g21
sbag1
(g8
g3
NtRp1521
(dp1522
g11
g12
sg13
VUnPilgi
p1523
sg15
I400
sg16
g12
sg17
g12
sg18
V/usr/share/fonts/truetype/unfonts-core/UnPilgi.ttf
p1524
sg20
g21
sbag1
(g8
g3
NtRp1525
(dp1526
g11
g53
sg13
VDroid Serif
p1527
sg15
I400
sg16
g12
sg17
g12
sg18
V/usr/share/fonts/truetype/droid/DroidSerif-Italic.ttf
p1528
sg20
g21
sbag1
(g8
g3
NtRp1529
(dp1530
g11
g12
sg13
VTlwg Typo
p1531
sg15
I700
sg16
g12
sg17
g12
sg18
V/usr/share/fonts/truetype/tlwg/TlwgTypo-Bold.ttf
p1532
sg20
g21
sbag1
(g8
g3
NtRp1533
(dp1534
g11
g53
sg13
VArial
p1535
sg15
I400
sg16
g12
sg17
g12
sg18
V/usr/share/fonts/truetype/msttcorefonts/Arial_Italic.ttf
p1536
sg20
g21
sbag1
(g8
g3
NtRp1537
(dp1538
g11
g53
sg13
VLiberation Serif
p1539
sg15
I400
sg16
g12
sg17
g12
sg18
V/usr/share/fonts/truetype/liberation/LiberationSerif-Italic.ttf
p1540
sg20
g21
sbag1
(g8
g3
NtRp1541
(dp1542
g11
g12
sg13
VTlwgTypewriter
p1543
sg15
I700
sg16
g12
sg17
g12
sg18
V/usr/share/fonts/truetype/tlwg/TlwgTypewriter-Bold.ttf
p1544
sg20
g21
sbag1
(g8
g3
NtRp1545
(dp1546
g11
g24
sg13
VWaree
p1547
sg15
I700
sg16
g12
sg17
g12
sg18
V/usr/share/fonts/truetype/tlwg/Waree-BoldOblique.ttf
p1548
sg20
g21
sbag1
(g8
g3
NtRp1549
(dp1550
g11
g12
sg13
VSTIXNonUnicode
p1551
sg15
I700
sg16
g12
sg17
g12
sg18
V/usr/share/fonts/opentype/stix/STIXNonUnicode-Bold.otf
p1552
sg20
g21
sbag1
(g8
g3
NtRp1553
(dp1554
g11
g12
sg13
VDejaVu Sans Mono
p1555
sg15
I700
sg16
g12
sg17
g12
sg18
V/usr/share/fonts/truetype/ttf-dejavu/DejaVuSansMono-Bold.ttf
p1556
sg20
g21
sbag1
(g8
g3
NtRp1557
(dp1558
g11
g53
sg13
VFreeSerif
p1559
sg15
I700
sg16
g12
sg17
g12
sg18
V/usr/share/fonts/truetype/freefont/FreeSerifBoldItalic.ttf
p1560
sg20
g21
sbag1
(g8
g3
NtRp1561
(dp1562
g11
g12
sg13
VVemana2000
p1563
sg15
I400
sg16
g12
sg17
g12
sg18
V/usr/share/fonts/truetype/ttf-indic-fonts-core/Vemana.ttf
p1564
sg20
g21
sbag1
(g8
g3
NtRp1565
(dp1566
g11
g12
sg13
VSTIXSizeThreeSym
p1567
sg15
I700
sg16
g12
sg17
g12
sg18
V/usr/share/fonts/opentype/stix/STIXSizeThreeSym-Bold.otf
p1568
sg20
g21
sbag1
(g8
g3
NtRp1569
(dp1570
g11
g24
sg13
VTlwg Typo
p1571
sg15
I400
sg16
g12
sg17
g12
sg18
V/usr/share/fonts/truetype/tlwg/TlwgTypo-Oblique.ttf
p1572
sg20
g21
sbag1
(g8
g3
NtRp1573
(dp1574
g11
g12
sg13
VDroid Sans
p1575
sg15
I700
sg16
g12
sg17
g12
sg18
V/usr/share/fonts/truetype/droid/DroidSans-Bold.ttf
p1576
sg20
g21
sbag1
(g8
g3
NtRp1577
(dp1578
g11
g24
sg13
VWaree
p1579
sg15
I400
sg16
g12
sg17
g12
sg18
V/usr/share/fonts/truetype/tlwg/Waree-Oblique.ttf
p1580
sg20
g21
sbag1
(g8
g3
NtRp1581
(dp1582
g11
g12
sg13
VGFS Neohellenic
p1583
sg15
I400
sg16
g12
sg17
g12
sg18
V/usr/share/fonts/truetype/neohellenic/GFSNeohellenic.otf
p1584
sg20
g21
sbag1
(g8
g3
NtRp1585
(dp1586
g11
g12
sg13
VArial
p1587
sg15
I700
sg16
g12
sg17
g12
sg18
V/usr/share/fonts/truetype/msttcorefonts/arialbd.ttf
p1588
sg20
g21
sbag1
(g8
g3
NtRp1589
(dp1590
g11
g53
sg13
VLinux Biolinum Outline O
p1591
sg15
I400
sg16
g12
sg17
g12
sg18
V/usr/share/fonts/opentype/linux-libertine/LinBiolinum_aUI.otf
p1592
sg20
g21
sbag1
(g8
g3
NtRp1593
(dp1594
g11
g12
sg13
VNorasi
p1595
sg15
I400
sg16
g12
sg17
g12
sg18
V/usr/share/fonts/truetype/tlwg/Norasi.ttf
p1596
sg20
g21
sbag1
(g8
g3
NtRp1597
(dp1598
g11
g12
sg13
VKedage
p1599
sg15
I400
sg16
g12
sg17
g12
sg18
V/usr/share/fonts/truetype/ttf-indic-fonts-core/Kedage-n.ttf
p1600
sg20
g21
sbag1
(g8
g3
NtRp1601
(dp1602
g11
g12
sg13
VArial
p1603
sg15
I400
sg16
g12
sg17
g12
sg18
V/usr/share/fonts/truetype/msttcorefonts/arial.ttf
p1604
sg20
g21
sbag1
(g8
g3
NtRp1605
(dp1606
g11
g12
sg13
VComic Sans MS
p1607
sg15
I400
sg16
g12
sg17
g12
sg18
V/usr/share/fonts/truetype/msttcorefonts/comic.ttf
p1608
sg20
g21
sbag1
(g8
g3
NtRp1609
(dp1610
g11
g12
sg13
VSTIXSizeFourSym
p1611
sg15
I700
sg16
g12
sg17
g12
sg18
V/usr/share/fonts/opentype/stix/STIXSizeFourSym-Bold.otf
p1612
sg20
g21
sbag1
(g8
g3
NtRp1613
(dp1614
g11
g24
sg13
VDejaVu Sans Mono
p1615
sg15
I400
sg16
g12
sg17
g12
sg18
V/usr/share/fonts/truetype/ttf-dejavu/DejaVuSansMono-Oblique.ttf
p1616
sg20
g21
sbag1
(g8
g3
NtRp1617
(dp1618
g11
g24
sg13
VTlwgMono
p1619
sg15
I700
sg16
g12
sg17
g12
sg18
V/usr/share/fonts/truetype/tlwg/TlwgMono-BoldOblique.ttf
p1620
sg20
g21
sbag1
(g8
g3
NtRp1621
(dp1622
g11
g12
sg13
VGFS Didot Classic
p1623
sg15
I400
sg16
g12
sg17
g12
sg18
V/usr/share/fonts/truetype/didot-classic/GFSDidotClassic.otf
p1624
sg20
g21
sbag1
(g8
g3
NtRp1625
(dp1626
g11
g53
sg13
VLinux Biolinum O
p1627
sg15
I400
sg16
g12
sg17
g12
sg18
V/usr/share/fonts/opentype/linux-libertine/LinBiolinum_RI.otf
p1628
sg20
g21
sbag1
(g8
g3
NtRp1629
(dp1630
g11
g12
sg13
VKacstQurn
p1631
sg15
I400
sg16
g12
sg17
g12
sg18
V/usr/share/fonts/truetype/kacst/KacstQurn.ttf
p1632
sg20
g21
sbag1
(g8
g3
NtRp1633
(dp1634
g11
g24
sg13
VFreeSans
p1635
sg15
I700
sg16
g12
sg17
g12
sg18
V/usr/share/fonts/opentype/freefont/FreeSansBoldOblique.otf
p1636
sg20
g21
sbag1
(g8
g3
NtRp1637
(dp1638
g11
g53
sg13
VArial
p1639
sg15
I700
sg16
g12
sg17
g12
sg18
V/usr/share/fonts/truetype/msttcorefonts/Arial_Bold_Italic.ttf
p1640
sg20
g21
sbag1
(g8
g3
NtRp1641
(dp1642
g11
g12
sg13
VKacstOffice
p1643
sg15
I400
sg16
g12
sg17
g12
sg18
V/usr/share/fonts/truetype/kacst/KacstOffice.ttf
p1644
sg20
g21
sbag1
(g8
g3
NtRp1645
(dp1646
g11
g53
sg13
VFreeSerif
p1647
sg15
I700
sg16
g12
sg17
g12
sg18
V/usr/share/fonts/opentype/freefont/FreeSerifBoldItalic.otf
p1648
sg20
g21
sbag1
(g8
g3
NtRp1649
(dp1650
g11
g12
sg13
VSTIXIntegralsUpD
p1651
sg15
I700
sg16
g12
sg17
g12
sg18
V/usr/share/fonts/opentype/stix/STIXIntegralsUpD-Bold.otf
p1652
sg20
g21
sbag1
(g8
g3
NtRp1653
(dp1654
g11
g12
sg13
VLoma
p1655
sg15
I400
sg16
g12
sg17
g12
sg18
V/usr/share/fonts/truetype/tlwg/Loma.ttf
p1656
sg20
g21
sbag1
(g8
g3
NtRp1657
(dp1658
g11
g24
sg13
VGaruda
p1659
sg15
I400
sg16
g12
sg17
g12
sg18
V/usr/share/fonts/truetype/tlwg/Garuda-Oblique.ttf
p1660
sg20
g21
sbag1
(g8
g3
NtRp1661
(dp1662
g11
g24
sg13
VTlwg Typo
p1663
sg15
I700
sg16
g12
sg17
g12
sg18
V/usr/share/fonts/truetype/tlwg/TlwgTypo-BoldOblique.ttf
p1664
sg20
g21
sbag1
(g8
g3
NtRp1665
(dp1666
g11
g12
sg13
VFreeMono
p1667
sg15
I700
sg16
g12
sg17
g12
sg18
V/usr/share/fonts/opentype/freefont/FreeMonoBold.otf
p1668
sg20
g21
sbag1
(g8
g3
NtRp1669
(dp1670
g11
g12
sg13
VKacstTitleL
p1671
sg15
I400
sg16
g12
sg17
g12
sg18
V/usr/share/fonts/truetype/kacst/KacstTitleL.ttf
p1672
sg20
g21
sbag1
(g8
g3
NtRp1673
(dp1674
g11
g12
sg13
VTimes New Roman
p1675
sg15
I700
sg16
g12
sg17
g12
sg18
V/usr/share/fonts/truetype/msttcorefonts/Times_New_Roman_Bold.ttf
p1676
sg20
g21
sbasS'defaultFamily'
p1677
(dp1678
Vafm
p1679
VHelvetica
p1680
sVttf
p1681
VBitstream Vera Sans
p1682
ssS'ttffiles'
p1683
(lp1684
g19
ag26
ag30
ag34
ag38
ag42
ag46
ag50
ag55
ag59
ag63
ag67
ag71
ag75
ag79
ag83
ag87
ag91
ag95
ag99
ag103
ag107
ag111
ag115
ag119
ag123
ag127
ag131
ag135
ag139
ag143
ag147
ag151
ag155
ag159
ag163
ag167
ag171
ag175
ag179
ag183
ag187
ag191
ag195
ag199
ag203
ag207
ag211
ag215
ag219
ag223
ag227
ag231
ag235
ag239
ag243
ag247
ag251
ag255
ag259
ag263
ag267
ag271
ag275
ag279
ag283
ag287
ag291
ag295
ag299
ag303
ag307
ag312
ag316
ag320
ag324
ag328
ag332
ag336
ag340
ag344
ag348
ag352
ag356
ag360
ag364
ag368
ag372
ag376
ag380
ag384
ag388
ag392
ag396
ag400
ag404
ag408
ag412
ag416
ag420
ag424
ag428
ag432
ag436
ag440
ag444
ag448
ag452
ag456
ag460
ag464
ag468
ag472
ag476
ag480
ag484
ag488
ag492
ag496
ag500
ag504
ag508
ag512
ag516
ag520
ag524
ag528
ag532
ag536
ag540
ag544
ag548
ag552
ag556
ag560
ag564
ag568
ag572
ag576
ag580
ag584
ag588
ag592
ag596
ag600
ag604
ag608
ag612
ag616
ag620
ag624
ag628
ag632
ag636
ag640
ag644
ag648
ag652
ag656
ag660
ag664
ag668
ag672
ag676
ag680
ag684
ag688
ag692
ag696
ag700
ag704
ag708
ag712
ag716
ag720
ag724
ag728
ag732
ag736
ag740
ag744
ag748
ag752
ag756
ag760
ag764
ag768
ag772
ag776
ag780
ag784
ag788
ag792
ag796
ag800
ag804
ag808
ag812
ag816
ag820
ag824
ag828
ag832
ag836
ag840
ag844
ag848
ag852
ag856
ag860
ag864
ag868
ag872
ag876
ag880
ag884
ag888
ag892
ag896
ag900
ag904
ag908
ag912
ag916
ag920
ag924
ag928
ag932
ag936
ag940
ag944
ag948
ag952
ag956
ag960
ag964
ag968
ag972
ag976
ag980
ag984
ag988
ag992
ag996
ag1000
ag1004
ag1008
ag1012
ag1016
ag1020
ag1024
ag1028
ag1032
ag1036
ag1040
ag1044
ag1048
ag1052
ag1056
ag1060
ag1064
ag1068
ag1072
ag1076
ag1080
ag1084
ag1088
ag1092
ag1096
ag1100
aV/usr/share/fonts/truetype/ttf-lyx/cmmi10.ttf
p1685
ag1104
ag1108
ag1112
ag1116
ag1120
ag1124
ag1128
ag1132
ag1136
ag1140
ag1144
ag1148
aV/usr/share/fonts/truetype/ttf-lyx/cmr10.ttf
p1686
ag1152
ag1156
ag1160
ag1164
ag1168
ag1172
ag1176
ag1180
ag1184
ag1188
aV/usr/share/fonts/truetype/ttf-lyx/cmsy10.ttf
p1687
ag1192
ag1196
ag1200
ag1204
ag1208
ag1212
ag1216
ag1220
ag1224
ag1228
ag1232
ag1236
ag1240
ag1244
ag1248
ag1252
ag1256
ag1260
ag1264
ag1268
ag1272
ag1276
ag1280
ag1284
ag1288
ag1292
ag1296
ag1300
aV/usr/share/fonts/truetype/ttf-lyx/cmex10.ttf
p1688
ag1304
ag1308
ag1312
ag1316
ag1320
ag1324
ag1328
ag1332
ag1336
ag1340
ag1344
ag1348
ag1352
ag1356
ag1360
ag1364
ag1368
ag1372
ag1376
ag1380
ag1384
ag1388
ag1392
ag1396
ag1400
ag1404
ag1408
ag1412
ag1416
ag1420
ag1424
ag1428
ag1432
ag1436
ag1440
ag1444
ag1448
ag1452
ag1456
ag1460
ag1464
ag1468
ag1472
ag1476
ag1480
ag1484
ag1488
ag1492
ag1496
ag1500
ag1504
ag1508
ag1512
ag1516
ag1520
ag1524
ag1528
ag1532
ag1536
ag1540
ag1544
ag1548
ag1552
ag1556
ag1560
ag1564
ag1568
ag1572
ag1576
ag1580
ag1584
ag1588
ag1592
ag1596
ag1600
ag1604
ag1608
ag1612
ag1616
ag1620
ag1624
ag1628
ag1632
ag1636
ag1640
ag1644
ag1648
ag1652
ag1656
ag1660
ag1664
ag1668
ag1672
ag1676
asS'_FontManager__default_weight'
p1689
Vnormal
p1690
sS'_version'
p1691
I101
sS'default_size'
p1692
NsS'defaultFont'
p1693
(dp1694
g1679
V/usr/local/lib/python2.7/dist-packages/matplotlib/mpl-data/fonts/afm/cmtt10.afm
p1695
sg1681
g42
ssS'afmfiles'
p1696
(lp1697
g1695
aV/usr/local/lib/python2.7/dist-packages/matplotlib/mpl-data/fonts/afm/pncbi8a.afm
p1698
aV/usr/local/lib/python2.7/dist-packages/matplotlib/mpl-data/fonts/pdfcorefonts/Helvetica-BoldOblique.afm
p1699
aV/usr/local/lib/python2.7/dist-packages/matplotlib/mpl-data/fonts/pdfcorefonts/Times-BoldItalic.afm
p1700
aV/usr/local/lib/python2.7/dist-packages/matplotlib/mpl-data/fonts/afm/putb8a.afm
p1701
aV/usr/local/lib/python2.7/dist-packages/matplotlib/mpl-data/fonts/afm/pplbi8a.afm
p1702
aV/usr/local/lib/python2.7/dist-packages/matplotlib/mpl-data/fonts/afm/phvb8an.afm
p1703
aV/usr/local/lib/python2.7/dist-packages/matplotlib/mpl-data/fonts/afm/phvlo8a.afm
p1704
aV/usr/local/lib/python2.7/dist-packages/matplotlib/mpl-data/fonts/afm/pzcmi8a.afm
p1705
aV/usr/local/lib/python2.7/dist-packages/matplotlib/mpl-data/fonts/afm/putri8a.afm
p1706
aV/usr/local/lib/python2.7/dist-packages/matplotlib/mpl-data/fonts/afm/phvro8a.afm
p1707
aV/usr/local/lib/python2.7/dist-packages/matplotlib/mpl-data/fonts/afm/pcrro8a.afm
p1708
aV/usr/local/lib/python2.7/dist-packages/matplotlib/mpl-data/fonts/afm/pcrr8a.afm
p1709
aV/usr/local/lib/python2.7/dist-packages/matplotlib/mpl-data/fonts/afm/ptmb8a.afm
p1710
aV/usr/local/lib/python2.7/dist-packages/matplotlib/mpl-data/fonts/afm/putr8a.afm
p1711
aV/usr/local/lib/python2.7/dist-packages/matplotlib/mpl-data/fonts/afm/phvb8a.afm
p1712
aV/usr/local/lib/python2.7/dist-packages/matplotlib/mpl-data/fonts/pdfcorefonts/Times-Roman.afm
p1713
aV/usr/local/lib/python2.7/dist-packages/matplotlib/mpl-data/fonts/afm/pbkdi8a.afm
p1714
aV/usr/local/lib/python2.7/dist-packages/matplotlib/mpl-data/fonts/afm/cmsy10.afm
p1715
aV/usr/local/lib/python2.7/dist-packages/matplotlib/mpl-data/fonts/afm/pncr8a.afm
p1716
aV/usr/local/lib/python2.7/dist-packages/matplotlib/mpl-data/fonts/afm/pagd8a.afm
p1717
aV/usr/local/lib/python2.7/dist-packages/matplotlib/mpl-data/fonts/pdfcorefonts/Courier-Oblique.afm
p1718
aV/usr/local/lib/python2.7/dist-packages/matplotlib/mpl-data/fonts/pdfcorefonts/Courier-BoldOblique.afm
p1719
aV/usr/local/lib/python2.7/dist-packages/matplotlib/mpl-data/fonts/afm/phvl8a.afm
p1720
aV/usr/local/lib/python2.7/dist-packages/matplotlib/mpl-data/fonts/afm/pbkd8a.afm
p1721
aV/usr/local/lib/python2.7/dist-packages/matplotlib/mpl-data/fonts/afm/pcrbo8a.afm
p1722
aV/usr/local/lib/python2.7/dist-packages/matplotlib/mpl-data/fonts/pdfcorefonts/Helvetica-Oblique.afm
p1723
aV/usr/local/lib/python2.7/dist-packages/matplotlib/mpl-data/fonts/afm/cmmi10.afm
p1724
aV/usr/local/lib/python2.7/dist-packages/matplotlib/mpl-data/fonts/afm/pagk8a.afm
p1725
aV/usr/local/lib/python2.7/dist-packages/matplotlib/mpl-data/fonts/afm/pncb8a.afm
p1726
aV/usr/local/lib/python2.7/dist-packages/matplotlib/mpl-data/fonts/afm/ptmri8a.afm
p1727
aV/usr/local/lib/python2.7/dist-packages/matplotlib/mpl-data/fonts/afm/pagdo8a.afm
p1728
aV/usr/local/lib/python2.7/dist-packages/matplotlib/mpl-data/fonts/afm/phvr8an.afm
p1729
aV/usr/local/lib/python2.7/dist-packages/matplotlib/mpl-data/fonts/afm/phvro8an.afm
p1730
aV/usr/local/lib/python2.7/dist-packages/matplotlib/mpl-data/fonts/pdfcorefonts/ZapfDingbats.afm
p1731
aV/usr/local/lib/python2.7/dist-packages/matplotlib/mpl-data/fonts/afm/pncri8a.afm
p1732
aV/usr/local/lib/python2.7/dist-packages/matplotlib/mpl-data/fonts/afm/pzdr.afm
p1733
aV/usr/local/lib/python2.7/dist-packages/matplotlib/mpl-data/fonts/afm/phvbo8a.afm
p1734
aV/usr/local/lib/python2.7/dist-packages/matplotlib/mpl-data/fonts/pdfcorefonts/Helvetica.afm
p1735
aV/usr/local/lib/python2.7/dist-packages/matplotlib/mpl-data/fonts/pdfcorefonts/Courier-Bold.afm
p1736
aV/usr/local/lib/python2.7/dist-packages/matplotlib/mpl-data/fonts/afm/pcrb8a.afm
p1737
aV/usr/local/lib/python2.7/dist-packages/matplotlib/mpl-data/fonts/afm/pbkli8a.afm
p1738
aV/usr/local/lib/python2.7/dist-packages/matplotlib/mpl-data/fonts/pdfcorefonts/Courier.afm
p1739
aV/usr/local/lib/python2.7/dist-packages/matplotlib/mpl-data/fonts/afm/phvbo8an.afm
p1740
aV/usr/local/lib/python2.7/dist-packages/matplotlib/mpl-data/fonts/afm/cmex10.afm
p1741
aV/usr/local/lib/python2.7/dist-packages/matplotlib/mpl-data/fonts/pdfcorefonts/Times-Italic.afm
p1742
aV/usr/local/lib/python2.7/dist-packages/matplotlib/mpl-data/fonts/afm/pplri8a.afm
p1743
aV/usr/local/lib/python2.7/dist-packages/matplotlib/mpl-data/fonts/afm/ptmbi8a.afm
p1744
aV/usr/local/lib/python2.7/dist-packages/matplotlib/mpl-data/fonts/afm/pplb8a.afm
p1745
aV/usr/local/lib/python2.7/dist-packages/matplotlib/mpl-data/fonts/afm/putbi8a.afm
p1746
aV/usr/local/lib/python2.7/dist-packages/matplotlib/mpl-data/fonts/afm/psyr.afm
p1747
aV/usr/local/lib/python2.7/dist-packages/matplotlib/mpl-data/fonts/pdfcorefonts/Times-Bold.afm
p1748
aV/usr/local/lib/python2.7/dist-packages/matplotlib/mpl-data/fonts/afm/cmr10.afm
p1749
aV/usr/local/lib/python2.7/dist-packages/matplotlib/mpl-data/fonts/afm/pplr8a.afm
p1750
aV/usr/local/lib/python2.7/dist-packages/matplotlib/mpl-data/fonts/afm/ptmr8a.afm
p1751
aV/usr/local/lib/python2.7/dist-packages/matplotlib/mpl-data/fonts/afm/phvr8a.afm
p1752
aV/usr/local/lib/python2.7/dist-packages/matplotlib/mpl-data/fonts/afm/pbkl8a.afm
p1753
aV/usr/local/lib/python2.7/dist-packages/matplotlib/mpl-data/fonts/pdfcorefonts/Symbol.afm
p1754
aV/usr/local/lib/python2.7/dist-packages/matplotlib/mpl-data/fonts/afm/pagko8a.afm
p1755
aV/usr/local/lib/python2.7/dist-packages/matplotlib/mpl-data/fonts/pdfcorefonts/Helvetica-Bold.afm
p1756
aV/usr/share/fonts/X11/Type1/lmtt10.afm
p1757
aV/usr/share/fonts/X11/Type1/qcsri.afm
p1758
aV/usr/share/fonts/X11/Type1/lmssqo8.afm
p1759
aV/usr/share/fonts/type1/gsfonts/b018015l.afm
p1760
aV/usr/share/fonts/X11/Type1/lmbxo10.afm
p1761
aV/usr/share/fonts/type1/gsfonts/n022024l.afm
p1762
aV/usr/share/fonts/X11/Type1/lmtlc10.afm
p1763
aV/usr/share/fonts/type1/gsfonts/n019004l.afm
p1764
aV/usr/share/fonts/X11/Type1/lmtk10.afm
p1765
aV/usr/share/fonts/X11/Type1/qbkr.afm
p1766
aV/usr/share/fonts/X11/Type1/lmdunh10.afm
p1767
aV/usr/share/fonts/type1/gsfonts/n019003l.afm
p1768
aV/usr/share/fonts/type1/gsfonts/p052004l.afm
p1769
aV/usr/share/fonts/type1/gsfonts/a010015l.afm
p1770
aV/usr/share/fonts/X11/Type1/qcrr.afm
p1771
aV/usr/share/fonts/type1/gsfonts/c059036l.afm
p1772
aV/usr/share/fonts/type1/gsfonts/c059013l.afm
p1773
aV/usr/share/fonts/X11/Type1/qtmb.afm
p1774
aV/usr/share/fonts/X11/Type1/qhvcb.afm
p1775
aV/usr/share/fonts/X11/Type1/lmssbx10.afm
p1776
aV/usr/share/fonts/X11/Type1/lmvtlo10.afm
p1777
aV/usr/share/fonts/X11/Type1/lmtcso10.afm
p1778
aV/usr/share/fonts/X11/Type1/lmtti10.afm
p1779
aV/usr/share/fonts/X11/Type1/c0419bt_.afm
p1780
aV/usr/share/fonts/type1/gsfonts/n021024l.afm
p1781
aV/usr/share/fonts/type1/gsfonts/n019024l.afm
p1782
aV/usr/share/fonts/X11/Type1/qhvbi.afm
p1783
aV/usr/share/fonts/X11/Type1/qcsb.afm
p1784
aV/usr/share/fonts/X11/Type1/lmbx10.afm
p1785
aV/usr/share/fonts/type1/gsfonts/d050000l.afm
p1786
aV/usr/share/fonts/X11/Type1/lmssdo10.afm
p1787
aV/usr/share/fonts/X11/Type1/lmssqbx8.afm
p1788
aV/usr/share/fonts/X11/Type1/qhvb.afm
p1789
aV/usr/share/fonts/X11/Type1/lmb10.afm
p1790
aV/usr/share/fonts/X11/Type1/c0648bt_.afm
p1791
aV/usr/share/fonts/type1/gsfonts/z003034l.afm
p1792
aV/usr/share/fonts/X11/Type1/qhvr.afm
p1793
aV/usr/share/fonts/X11/Type1/lmbxi10.afm
p1794
aV/usr/share/fonts/type1/gsfonts/b018012l.afm
p1795
aV/usr/share/fonts/X11/Type1/lmssbo10.afm
p1796
aV/usr/share/fonts/X11/Type1/qplr.afm
p1797
aV/usr/share/fonts/X11/Type1/qcsr.afm
p1798
aV/usr/share/fonts/type1/gsfonts/a010013l.afm
p1799
aV/usr/share/fonts/X11/Type1/c0583bt_.afm
p1800
aV/usr/share/fonts/X11/Type1/qagri.afm
p1801
aV/usr/share/fonts/X11/Type1/qbkbi.afm
p1802
aV/usr/share/fonts/X11/Type1/lmcsc10.afm
p1803
aV/usr/share/fonts/X11/Type1/qcrbi.afm
p1804
aV/usr/share/fonts/X11/Type1/qcrb.afm
p1805
aV/usr/share/fonts/X11/Type1/lmssqbo8.afm
p1806
aV/usr/share/fonts/type1/gsfonts/p052003l.afm
p1807
aV/usr/share/fonts/type1/gsfonts/b018032l.afm
p1808
aV/usr/share/fonts/X11/Type1/lmvtk10.afm
p1809
aV/usr/share/fonts/type1/gsfonts/n021023l.afm
p1810
aV/usr/share/fonts/X11/Type1/qhvri.afm
p1811
aV/usr/share/fonts/X11/Type1/lmtlo10.afm
p1812
aV/usr/share/fonts/X11/Type1/lmvtl10.afm
p1813
aV/usr/share/fonts/type1/gsfonts/n021003l.afm
p1814
aV/usr/share/fonts/X11/Type1/c0611bt_.afm
p1815
aV/usr/share/fonts/type1/gsfonts/s050000l.afm
p1816
aV/usr/share/fonts/type1/gsfonts/n021004l.afm
p1817
aV/usr/share/fonts/type1/gsfonts/p052024l.afm
p1818
aV/usr/share/fonts/X11/Type1/qtmri.afm
p1819
aV/usr/share/fonts/X11/Type1/qbkb.afm
p1820
aV/usr/share/fonts/type1/gsfonts/n019063l.afm
p1821
aV/usr/share/fonts/X11/Type1/qtmr.afm
p1822
aV/usr/share/fonts/X11/Type1/lmtcsc10.afm
p1823
aV/usr/share/fonts/X11/Type1/lmcsco10.afm
p1824
aV/usr/share/fonts/X11/Type1/qagb.afm
p1825
aV/usr/share/fonts/X11/Type1/c0633bt_.afm
p1826
aV/usr/share/fonts/X11/Type1/lmvtto10.afm
p1827
aV/usr/share/fonts/X11/Type1/lmss10.afm
p1828
aV/usr/share/fonts/X11/Type1/lmvtt10.afm
p1829
aV/usr/share/fonts/type1/gsfonts/b018035l.afm
p1830
aV/usr/share/fonts/X11/Type1/lmduno10.afm
p1831
aV/usr/share/fonts/X11/Type1/qtmbi.afm
p1832
aV/usr/share/fonts/X11/Type1/qcsbi.afm
p1833
aV/usr/share/fonts/type1/gsfonts/n022004l.afm
p1834
aV/usr/share/fonts/type1/mathml/Symbol.afm
p1835
aV/usr/share/fonts/X11/Type1/qhvcbi.afm
p1836
aV/usr/share/fonts/X11/Type1/lmri10.afm
p1837
aV/usr/share/fonts/X11/Type1/Symbol.afm
p1838
aV/usr/share/fonts/X11/Type1/lmr10.afm
p1839
aV/usr/share/fonts/X11/Type1/c0649bt_.afm
p1840
aV/usr/share/fonts/X11/Type1/lmtl10.afm
p1841
aV/usr/share/fonts/X11/Type1/qplri.afm
p1842
aV/usr/share/fonts/X11/Type1/qagbi.afm
p1843
aV/usr/share/fonts/X11/Type1/qhvcr.afm
p1844
aV/usr/share/fonts/X11/Type1/lmtlco10.afm
p1845
aV/usr/share/fonts/type1/gsfonts/c059016l.afm
p1846
aV/usr/share/fonts/X11/Type1/qplb.afm
p1847
aV/usr/share/fonts/type1/gsfonts/n019044l.afm
p1848
aV/usr/share/fonts/type1/gsfonts/n022003l.afm
p1849
aV/usr/share/fonts/type1/gsfonts/a010033l.afm
p1850
aV/usr/share/fonts/X11/Type1/lmvtko10.afm
p1851
aV/usr/share/fonts/type1/gsfonts/n019043l.afm
p1852
aV/usr/share/fonts/X11/Type1/qcrri.afm
p1853
aV/usr/share/fonts/type1/gsfonts/n019064l.afm
p1854
aV/usr/share/fonts/X11/Type1/c0582bt_.afm
p1855
aV/usr/share/fonts/X11/Type1/lmssq8.afm
p1856
aV/usr/share/fonts/X11/Type1/lmro10.afm
p1857
aV/usr/share/fonts/X11/Type1/qagr.afm
p1858
aV/usr/share/fonts/type1/gsfonts/c059033l.afm
p1859
aV/usr/share/fonts/type1/gsfonts/n019023l.afm
p1860
aV/usr/share/fonts/X11/Type1/lmtko10.afm
p1861
aV/usr/share/fonts/X11/Type1/qzcmi.afm
p1862
aV/usr/share/fonts/X11/Type1/lmsso10.afm
p1863
aV/usr/share/fonts/X11/Type1/lmbo10.afm
p1864
aV/usr/share/fonts/type1/gsfonts/p052023l.afm
p1865
aV/usr/share/fonts/X11/Type1/qplbi.afm
p1866
aV/usr/share/fonts/X11/Type1/lmssdc10.afm
p1867
aV/usr/share/fonts/X11/Type1/lmtto10.afm
p1868
aV/usr/share/fonts/type1/gsfonts/n022023l.afm
p1869
aV/usr/share/fonts/X11/Type1/qhvcri.afm
p1870
aV/usr/share/fonts/type1/gsfonts/a010035l.afm
p1871
aV/usr/share/fonts/X11/Type1/qbkri.afm
p1872
aV/usr/share/fonts/X11/Type1/c0632bt_.afm
p1873
aV/usr/share/fonts/X11/Type1/lmu10.afm
p1874
asS'afmlist'
p1875
(lp1876
g1
(g8
g3
NtRp1877
(dp1878
g11
Vnormal
p1879
sg13
S'Computer Modern'
p1880
sg15
I500
sg16
g1879
sg17
g1879
sg18
g1695
sg20
Vscalable
p1881
sbag1
(g8
g3
NtRp1882
(dp1883
g11
Vitalic
p1884
sg13
S'New Century Schoolbook'
p1885
sg15
I700
sg16
g1879
sg17
g1879
sg18
g1698
sg20
g1881
sbag1
(g8
g3
NtRp1886
(dp1887
g11
g1884
sg13
S'Helvetica'
p1888
sg15
I700
sg16
g1879
sg17
g1879
sg18
g1699
sg20
g1881
sbag1
(g8
g3
NtRp1889
(dp1890
g11
g1884
sg13
S'Times'
p1891
sg15
I700
sg16
g1879
sg17
g1879
sg18
g1700
sg20
g1881
sbag1
(g8
g3
NtRp1892
(dp1893
g11
g1879
sg13
S'Utopia'
p1894
sg15
I700
sg16
g1879
sg17
g1879
sg18
g1701
sg20
g1881
sbag1
(g8
g3
NtRp1895
(dp1896
g11
g1884
sg13
S'Palatino'
p1897
sg15
I700
sg16
g1879
sg17
g1879
sg18
g1702
sg20
g1881
sbag1
(g8
g3
NtRp1898
(dp1899
g11
g1879
sg13
S'Helvetica'
p1900
sg15
I700
sg16
Vcondensed
p1901
sg17
g1879
sg18
g1703
sg20
g1881
sbag1
(g8
g3
NtRp1902
(dp1903
g11
g1884
sg13
S'Helvetica'
p1904
sg15
I200
sg16
g1879
sg17
g1879
sg18
g1704
sg20
g1881
sbag1
(g8
g3
NtRp1905
(dp1906
g11
g1884
sg13
S'ITC Zapf Chancery'
p1907
sg15
I500
sg16
g1879
sg17
g1879
sg18
g1705
sg20
g1881
sbag1
(g8
g3
NtRp1908
(dp1909
g11
g1884
sg13
S'Utopia'
p1910
sg15
I400
sg16
g1879
sg17
g1879
sg18
g1706
sg20
g1881
sbag1
(g8
g3
NtRp1911
(dp1912
g11
g1884
sg13
S'Helvetica'
p1913
sg15
I500
sg16
g1879
sg17
g1879
sg18
g1707
sg20
g1881
sbag1
(g8
g3
NtRp1914
(dp1915
g11
g1884
sg13
S'Courier'
p1916
sg15
I500
sg16
g1879
sg17
g1879
sg18
g1708
sg20
g1881
sbag1
(g8
g3
NtRp1917
(dp1918
g11
g1879
sg13
S'Courier'
p1919
sg15
I500
sg16
g1879
sg17
g1879
sg18
g1709
sg20
g1881
sbag1
(g8
g3
NtRp1920
(dp1921
g11
g1879
sg13
S'Times'
p1922
sg15
I700
sg16
g1879
sg17
g1879
sg18
g1710
sg20
g1881
sbag1
(g8
g3
NtRp1923
(dp1924
g11
g1879
sg13
S'Utopia'
p1925
sg15
I400
sg16
g1879
sg17
g1879
sg18
g1711
sg20
g1881
sbag1
(g8
g3
NtRp1926
(dp1927
g11
g1879
sg13
S'Helvetica'
p1928
sg15
I700
sg16
g1879
sg17
g1879
sg18
g1712
sg20
g1881
sbag1
(g8
g3
NtRp1929
(dp1930
g11
g1879
sg13
S'Times'
p1931
sg15
I500
sg16
g1879
sg17
g1879
sg18
g1713
sg20
g1881
sbag1
(g8
g3
NtRp1932
(dp1933
g11
g1884
sg13
S'ITC Bookman'
p1934
sg15
I600
sg16
g1879
sg17
g1879
sg18
g1714
sg20
g1881
sbag1
(g8
g3
NtRp1935
(dp1936
g11
g1884
sg13
S'Computer Modern'
p1937
sg15
I500
sg16
g1879
sg17
g1879
sg18
g1715
sg20
g1881
sbag1
(g8
g3
NtRp1938
(dp1939
g11
g1879
sg13
S'New Century Schoolbook'
p1940
sg15
I500
sg16
g1879
sg17
g1879
sg18
g1716
sg20
g1881
sbag1
(g8
g3
NtRp1941
(dp1942
g11
g1879
sg13
S'ITC Avant Garde Gothic'
p1943
sg15
I600
sg16
g1879
sg17
g1879
sg18
g1717
sg20
g1881
sbag1
(g8
g3
NtRp1944
(dp1945
g11
g1884
sg13
S'Courier'
p1946
sg15
I500
sg16
g1879
sg17
g1879
sg18
g1718
sg20
g1881
sbag1
(g8
g3
NtRp1947
(dp1948
g11
g1884
sg13
S'Courier'
p1949
sg15
I700
sg16
g1879
sg17
g1879
sg18
g1719
sg20
g1881
sbag1
(g8
g3
NtRp1950
(dp1951
g11
g1879
sg13
S'Helvetica'
p1952
sg15
I200
sg16
g1879
sg17
g1879
sg18
g1720
sg20
g1881
sbag1
(g8
g3
NtRp1953
(dp1954
g11
g1879
sg13
S'ITC Bookman'
p1955
sg15
I600
sg16
g1879
sg17
g1879
sg18
g1721
sg20
g1881
sbag1
(g8
g3
NtRp1956
(dp1957
g11
g1884
sg13
S'Courier'
p1958
sg15
I700
sg16
g1879
sg17
g1879
sg18
g1722
sg20
g1881
sbag1
(g8
g3
NtRp1959
(dp1960
g11
g1884
sg13
S'Helvetica'
p1961
sg15
I500
sg16
g1879
sg17
g1879
sg18
g1723
sg20
g1881
sbag1
(g8
g3
NtRp1962
(dp1963
g11
g1884
sg13
S'Computer Modern'
p1964
sg15
I500
sg16
g1879
sg17
g1879
sg18
g1724
sg20
g1881
sbag1
(g8
g3
NtRp1965
(dp1966
g11
g1879
sg13
S'ITC Avant Garde Gothic'
p1967
sg15
I400
sg16
g1879
sg17
g1879
sg18
g1725
sg20
g1881
sbag1
(g8
g3
NtRp1968
(dp1969
g11
g1879
sg13
S'New Century Schoolbook'
p1970
sg15
I700
sg16
g1879
sg17
g1879
sg18
g1726
sg20
g1881
sbag1
(g8
g3
NtRp1971
(dp1972
g11
g1884
sg13
S'Times'
p1973
sg15
I500
sg16
g1879
sg17
g1879
sg18
g1727
sg20
g1881
sbag1
(g8
g3
NtRp1974
(dp1975
g11
g1884
sg13
S'ITC Avant Garde Gothic'
p1976
sg15
I600
sg16
g1879
sg17
g1879
sg18
g1728
sg20
g1881
sbag1
(g8
g3
NtRp1977
(dp1978
g11
g1879
sg13
S'Helvetica'
p1979
sg15
I500
sg16
g1901
sg17
g1879
sg18
g1729
sg20
g1881
sbag1
(g8
g3
NtRp1980
(dp1981
g11
g1884
sg13
S'Helvetica'
p1982
sg15
I500
sg16
g1901
sg17
g1879
sg18
g1730
sg20
g1881
sbag1
(g8
g3
NtRp1983
(dp1984
g11
g1879
sg13
S'ZapfDingbats'
p1985
sg15
I500
sg16
g1879
sg17
g1879
sg18
g1731
sg20
g1881
sbag1
(g8
g3
NtRp1986
(dp1987
g11
g1884
sg13
S'New Century Schoolbook'
p1988
sg15
I500
sg16
g1879
sg17
g1879
sg18
g1732
sg20
g1881
sbag1
(g8
g3
NtRp1989
(dp1990
g11
g1879
sg13
S'ITC Zapf Dingbats'
p1991
sg15
I500
sg16
g1879
sg17
g1879
sg18
g1733
sg20
g1881
sbag1
(g8
g3
NtRp1992
(dp1993
g11
g1884
sg13
S'Helvetica'
p1994
sg15
I700
sg16
g1879
sg17
g1879
sg18
g1734
sg20
g1881
sbag1
(g8
g3
NtRp1995
(dp1996
g11
g1879
sg13
S'Helvetica'
p1997
sg15
I500
sg16
g1879
sg17
g1879
sg18
g1735
sg20
g1881
sbag1
(g8
g3
NtRp1998
(dp1999
g11
g1879
sg13
S'Courier'
p2000
sg15
I700
sg16
g1879
sg17
g1879
sg18
g1736
sg20
g1881
sbag1
(g8
g3
NtRp2001
(dp2002
g11
g1879
sg13
S'Courier'
p2003
sg15
I700
sg16
g1879
sg17
g1879
sg18
g1737
sg20
g1881
sbag1
(g8
g3
NtRp2004
(dp2005
g11
g1884
sg13
S'ITC Bookman'
p2006
sg15
I200
sg16
g1879
sg17
g1879
sg18
g1738
sg20
g1881
sbag1
(g8
g3
NtRp2007
(dp2008
g11
g1879
sg13
S'Courier'
p2009
sg15
I500
sg16
g1879
sg17
g1879
sg18
g1739
sg20
g1881
sbag1
(g8
g3
NtRp2010
(dp2011
g11
g1884
sg13
S'Helvetica'
p2012
sg15
I700
sg16
g1901
sg17
g1879
sg18
g1740
sg20
g1881
sbag1
(g8
g3
NtRp2013
(dp2014
g11
g1879
sg13
S'Computer Modern'
p2015
sg15
I500
sg16
g1879
sg17
g1879
sg18
g1741
sg20
g1881
sbag1
(g8
g3
NtRp2016
(dp2017
g11
g1884
sg13
S'Times'
p2018
sg15
I500
sg16
g1879
sg17
g1879
sg18
g1742
sg20
g1881
sbag1
(g8
g3
NtRp2019
(dp2020
g11
g1884
sg13
S'Palatino'
p2021
sg15
I500
sg16
g1879
sg17
g1879
sg18
g1743
sg20
g1881
sbag1
(g8
g3
NtRp2022
(dp2023
g11
g1884
sg13
S'Times'
p2024
sg15
I700
sg16
g1879
sg17
g1879
sg18
g1744
sg20
g1881
sbag1
(g8
g3
NtRp2025
(dp2026
g11
g1879
sg13
S'Palatino'
p2027
sg15
I700
sg16
g1879
sg17
g1879
sg18
g1745
sg20
g1881
sbag1
(g8
g3
NtRp2028
(dp2029
g11
g1884
sg13
S'Utopia'
p2030
sg15
I700
sg16
g1879
sg17
g1879
sg18
g1746
sg20
g1881
sbag1
(g8
g3
NtRp2031
(dp2032
g11
g1879
sg13
S'Symbol'
p2033
sg15
I500
sg16
g1879
sg17
g1879
sg18
g1747
sg20
g1881
sbag1
(g8
g3
NtRp2034
(dp2035
g11
g1879
sg13
S'Times'
p2036
sg15
I700
sg16
g1879
sg17
g1879
sg18
g1748
sg20
g1881
sbag1
(g8
g3
NtRp2037
(dp2038
g11
g1879
sg13
S'Computer Modern'
p2039
sg15
I500
sg16
g1879
sg17
g1879
sg18
g1749
sg20
g1881
sbag1
(g8
g3
NtRp2040
(dp2041
g11
g1879
sg13
S'Palatino'
p2042
sg15
I500
sg16
g1879
sg17
g1879
sg18
g1750
sg20
g1881
sbag1
(g8
g3
NtRp2043
(dp2044
g11
g1879
sg13
S'Times'
p2045
sg15
I500
sg16
g1879
sg17
g1879
sg18
g1751
sg20
g1881
sbag1
(g8
g3
NtRp2046
(dp2047
g11
g1879
sg13
S'Helvetica'
p2048
sg15
I500
sg16
g1879
sg17
g1879
sg18
g1752
sg20
g1881
sbag1
(g8
g3
NtRp2049
(dp2050
g11
g1879
sg13
S'ITC Bookman'
p2051
sg15
I200
sg16
g1879
sg17
g1879
sg18
g1753
sg20
g1881
sbag1
(g8
g3
NtRp2052
(dp2053
g11
g1879
sg13
S'Symbol'
p2054
sg15
I500
sg16
g1879
sg17
g1879
sg18
g1754
sg20
g1881
sbag1
(g8
g3
NtRp2055
(dp2056
g11
g1884
sg13
S'ITC Avant Garde Gothic'
p2057
sg15
I400
sg16
g1879
sg17
g1879
sg18
g1755
sg20
g1881
sbag1
(g8
g3
NtRp2058
(dp2059
g11
g1879
sg13
S'Helvetica'
p2060
sg15
I700
sg16
g1879
sg17
g1879
sg18
g1756
sg20
g1881
sbag1
(g8
g3
NtRp2061
(dp2062
g11
g1879
sg13
S'LMMono10'
p2063
sg15
I400
sg16
g1879
sg17
g1879
sg18
g1757
sg20
g1881
sbag1
(g8
g3
NtRp2064
(dp2065
g11
g1884
sg13
S'TeXGyreSchola'
p2066
sg15
I400
sg16
g1879
sg17
g1879
sg18
g1758
sg20
g1881
sbag1
(g8
g3
NtRp2067
(dp2068
g11
g1884
sg13
S'LMSansQuot8'
p2069
sg15
I400
sg16
g1879
sg17
g1879
sg18
g1759
sg20
g1881
sbag1
(g8
g3
NtRp2070
(dp2071
g11
g1879
sg13
S'URW Bookman L'
p2072
sg15
I700
sg16
g1879
sg17
g1879
sg18
g1760
sg20
g1881
sbag1
(g8
g3
NtRp2073
(dp2074
g11
g1884
sg13
S'LMRomanSlant10'
p2075
sg15
I700
sg16
g1879
sg17
g1879
sg18
g1761
sg20
g1881
sbag1
(g8
g3
NtRp2076
(dp2077
g11
g1884
sg13
S'Nimbus Mono L'
p2078
sg15
I700
sg16
g1879
sg17
g1879
sg18
g1762
sg20
g1881
sbag1
(g8
g3
NtRp2079
(dp2080
g11
g1879
sg13
S'LMMonoLtCond10'
p2081
sg15
I200
sg16
g1901
sg17
g1879
sg18
g1763
sg20
g1881
sbag1
(g8
g3
NtRp2082
(dp2083
g11
g1879
sg13
S'Nimbus Sans L'
p2084
sg15
I700
sg16
g1879
sg17
g1879
sg18
g1764
sg20
g1881
sbag1
(g8
g3
NtRp2085
(dp2086
g11
g1879
sg13
S'LMMonoLt10'
p2087
sg15
I700
sg16
g1879
sg17
g1879
sg18
g1765
sg20
g1881
sbag1
(g8
g3
NtRp2088
(dp2089
g11
g1879
sg13
S'TeXGyreBonum'
p2090
sg15
I400
sg16
g1879
sg17
g1879
sg18
g1766
sg20
g1881
sbag1
(g8
g3
NtRp2091
(dp2092
g11
g1879
sg13
S'LMRomanDunh10'
p2093
sg15
I400
sg16
g1879
sg17
g1879
sg18
g1767
sg20
g1881
sbag1
(g8
g3
NtRp2094
(dp2095
g11
g1879
sg13
S'Nimbus Sans L'
p2096
sg15
I400
sg16
g1879
sg17
g1879
sg18
g1768
sg20
g1881
sbag1
(g8
g3
NtRp2097
(dp2098
g11
g1879
sg13
S'URW Palladio L'
p2099
sg15
I700
sg16
g1879
sg17
g1879
sg18
g1769
sg20
g1881
sbag1
(g8
g3
NtRp2100
(dp2101
g11
g1879
sg13
S'URW Gothic L'
p2102
sg15
I600
sg16
g1879
sg17
g1879
sg18
g1770
sg20
g1881
sbag1
(g8
g3
NtRp2103
(dp2104
g11
g1879
sg13
S'TeXGyreCursor'
p2105
sg15
I400
sg16
g1879
sg17
g1879
sg18
g1771
sg20
g1881
sbag1
(g8
g3
NtRp2106
(dp2107
g11
g1884
sg13
S'Century Schoolbook L'
p2108
sg15
I700
sg16
g1879
sg17
g1879
sg18
g1772
sg20
g1881
sbag1
(g8
g3
NtRp2109
(dp2110
g11
g1879
sg13
S'Century Schoolbook L'
p2111
sg15
I500
sg16
g1879
sg17
g1879
sg18
g1773
sg20
g1881
sbag1
(g8
g3
NtRp2112
(dp2113
g11
g1879
sg13
S'TeXGyreTermes'
p2114
sg15
I700
sg16
g1879
sg17
g1879
sg18
g1774
sg20
g1881
sbag1
(g8
g3
NtRp2115
(dp2116
g11
g1879
sg13
S'TeXGyreHerosCondensed'
p2117
sg15
I700
sg16
g1901
sg17
g1879
sg18
g1775
sg20
g1881
sbag1
(g8
g3
NtRp2118
(dp2119
g11
g1879
sg13
S'LMSans10'
p2120
sg15
I700
sg16
g1879
sg17
g1879
sg18
g1776
sg20
g1881
sbag1
(g8
g3
NtRp2121
(dp2122
g11
g1884
sg13
S'LMMonoPropLt10'
p2123
sg15
I200
sg16
g1879
sg17
g1879
sg18
g1777
sg20
g1881
sbag1
(g8
g3
NtRp2124
(dp2125
g11
g1884
sg13
S'LMMonoCaps10'
p2126
sg15
I400
sg16
g1879
sg17
g1879
sg18
g1778
sg20
g1881
sbag1
(g8
g3
NtRp2127
(dp2128
g11
g1884
sg13
S'LMMono10'
p2129
sg15
I400
sg16
g1879
sg17
g1879
sg18
g1779
sg20
g1881
sbag1
(g8
g3
NtRp2130
(dp2131
g11
g1879
sg13
S'Courier 10 Pitch'
p2132
sg15
I400
sg16
g1879
sg17
g1879
sg18
g1780
sg20
g1881
sbag1
(g8
g3
NtRp2133
(dp2134
g11
g1884
sg13
S'Nimbus Roman No9 L'
p2135
sg15
I700
sg16
g1879
sg17
g1879
sg18
g1781
sg20
g1881
sbag1
(g8
g3
NtRp2136
(dp2137
g11
g1884
sg13
S'Nimbus Sans L'
p2138
sg15
I700
sg16
g1879
sg17
g1879
sg18
g1782
sg20
g1881
sbag1
(g8
g3
NtRp2139
(dp2140
g11
g1884
sg13
S'TeXGyreHeros'
p2141
sg15
I700
sg16
g1879
sg17
g1879
sg18
g1783
sg20
g1881
sbag1
(g8
g3
NtRp2142
(dp2143
g11
g1879
sg13
S'TeXGyreSchola'
p2144
sg15
I700
sg16
g1879
sg17
g1879
sg18
g1784
sg20
g1881
sbag1
(g8
g3
NtRp2145
(dp2146
g11
g1879
sg13
S'LMRoman10'
p2147
sg15
I700
sg16
g1879
sg17
g1879
sg18
g1785
sg20
g1881
sbag1
(g8
g3
NtRp2148
(dp2149
g11
g1879
sg13
S'Dingbats'
p2150
sg15
I400
sg16
g1879
sg17
g1879
sg18
g1786
sg20
g1881
sbag1
(g8
g3
NtRp2151
(dp2152
g11
g1884
sg13
S'LMSansDemiCond10'
p2153
sg15
I600
sg16
g1901
sg17
g1879
sg18
g1787
sg20
g1881
sbag1
(g8
g3
NtRp2154
(dp2155
g11
g1879
sg13
S'LMSansQuot8'
p2156
sg15
I700
sg16
g1879
sg17
g1879
sg18
g1788
sg20
g1881
sbag1
(g8
g3
NtRp2157
(dp2158
g11
g1879
sg13
S'TeXGyreHeros'
p2159
sg15
I700
sg16
g1879
sg17
g1879
sg18
g1789
sg20
g1881
sbag1
(g8
g3
NtRp2160
(dp2161
g11
g1879
sg13
S'LMRomanDemi10'
p2162
sg15
I600
sg16
g1879
sg17
g1879
sg18
g1790
sg20
g1881
sbag1
(g8
g3
NtRp2163
(dp2164
g11
g1879
sg13
S'Bitstream Charter'
p2165
sg15
I400
sg16
g1879
sg17
g1879
sg18
g1791
sg20
g1881
sbag1
(g8
g3
NtRp2166
(dp2167
g11
g1884
sg13
S'URW Chancery L'
p2168
sg15
I500
sg16
g1879
sg17
g1879
sg18
g1792
sg20
g1881
sbag1
(g8
g3
NtRp2169
(dp2170
g11
g1879
sg13
S'TeXGyreHeros'
p2171
sg15
I400
sg16
g1879
sg17
g1879
sg18
g1793
sg20
g1881
sbag1
(g8
g3
NtRp2172
(dp2173
g11
g1884
sg13
S'LMRoman10'
p2174
sg15
I700
sg16
g1879
sg17
g1879
sg18
g1794
sg20
g1881
sbag1
(g8
g3
NtRp2175
(dp2176
g11
g1879
sg13
S'URW Bookman L'
p2177
sg15
I400
sg16
g1879
sg17
g1879
sg18
g1795
sg20
g1881
sbag1
(g8
g3
NtRp2178
(dp2179
g11
g1884
sg13
S'LMSans10'
p2180
sg15
I700
sg16
g1879
sg17
g1879
sg18
g1796
sg20
g1881
sbag1
(g8
g3
NtRp2181
(dp2182
g11
g1879
sg13
S'TeXGyrePagella'
p2183
sg15
I400
sg16
g1879
sg17
g1879
sg18
g1797
sg20
g1881
sbag1
(g8
g3
NtRp2184
(dp2185
g11
g1879
sg13
S'TeXGyreSchola'
p2186
sg15
I400
sg16
g1879
sg17
g1879
sg18
g1798
sg20
g1881
sbag1
(g8
g3
NtRp2187
(dp2188
g11
g1879
sg13
S'URW Gothic L'
p2189
sg15
I400
sg16
g1879
sg17
g1879
sg18
g1799
sg20
g1881
sbag1
(g8
g3
NtRp2190
(dp2191
g11
g1879
sg13
S'Courier 10 Pitch'
p2192
sg15
I700
sg16
g1879
sg17
g1879
sg18
g1800
sg20
g1881
sbag1
(g8
g3
NtRp2193
(dp2194
g11
g1884
sg13
S'TeXGyreAdventor'
p2195
sg15
I400
sg16
g1879
sg17
g1879
sg18
g1801
sg20
g1881
sbag1
(g8
g3
NtRp2196
(dp2197
g11
g1884
sg13
S'TeXGyreBonum'
p2198
sg15
I700
sg16
g1879
sg17
g1879
sg18
g1802
sg20
g1881
sbag1
(g8
g3
NtRp2199
(dp2200
g11
g1879
sg13
S'LMRomanCaps10'
p2201
sg15
I400
sg16
g1879
sg17
g1879
sg18
g1803
sg20
g1881
sbag1
(g8
g3
NtRp2202
(dp2203
g11
g1884
sg13
S'TeXGyreCursor'
p2204
sg15
I700
sg16
g1879
sg17
g1879
sg18
g1804
sg20
g1881
sbag1
(g8
g3
NtRp2205
(dp2206
g11
g1879
sg13
S'TeXGyreCursor'
p2207
sg15
I700
sg16
g1879
sg17
g1879
sg18
g1805
sg20
g1881
sbag1
(g8
g3
NtRp2208
(dp2209
g11
g1884
sg13
S'LMSansQuot8'
p2210
sg15
I700
sg16
g1879
sg17
g1879
sg18
g1806
sg20
g1881
sbag1
(g8
g3
NtRp2211
(dp2212
g11
g1879
sg13
S'URW Palladio L'
p2213
sg15
I500
sg16
g1879
sg17
g1879
sg18
g1807
sg20
g1881
sbag1
(g8
g3
NtRp2214
(dp2215
g11
g1884
sg13
S'URW Bookman L'
p2216
sg15
I400
sg16
g1879
sg17
g1879
sg18
g1808
sg20
g1881
sbag1
(g8
g3
NtRp2217
(dp2218
g11
g1879
sg13
S'LMMonoPropLt10'
p2219
sg15
I700
sg16
g1879
sg17
g1879
sg18
g1809
sg20
g1881
sbag1
(g8
g3
NtRp2220
(dp2221
g11
g1884
sg13
S'Nimbus Roman No9 L'
p2222
sg15
I400
sg16
g1879
sg17
g1879
sg18
g1810
sg20
g1881
sbag1
(g8
g3
NtRp2223
(dp2224
g11
g1884
sg13
S'TeXGyreHeros'
p2225
sg15
I400
sg16
g1879
sg17
g1879
sg18
g1811
sg20
g1881
sbag1
(g8
g3
NtRp2226
(dp2227
g11
g1884
sg13
S'LMMonoLt10'
p2228
sg15
I200
sg16
g1879
sg17
g1879
sg18
g1812
sg20
g1881
sbag1
(g8
g3
NtRp2229
(dp2230
g11
g1879
sg13
S'LMMonoPropLt10'
p2231
sg15
I200
sg16
g1879
sg17
g1879
sg18
g1813
sg20
g1881
sbag1
(g8
g3
NtRp2232
(dp2233
g11
g1879
sg13
S'Nimbus Roman No9 L'
p2234
sg15
I400
sg16
g1879
sg17
g1879
sg18
g1814
sg20
g1881
sbag1
(g8
g3
NtRp2235
(dp2236
g11
g1884
sg13
S'Courier 10 Pitch'
p2237
sg15
I700
sg16
g1879
sg17
g1879
sg18
g1815
sg20
g1881
sbag1
(g8
g3
NtRp2238
(dp2239
g11
g1879
sg13
S'Standard Symbols L'
p2240
sg15
I400
sg16
g1879
sg17
g1879
sg18
g1816
sg20
g1881
sbag1
(g8
g3
NtRp2241
(dp2242
g11
g1879
sg13
S'Nimbus Roman No9 L'
p2243
sg15
I700
sg16
g1879
sg17
g1879
sg18
g1817
sg20
g1881
sbag1
(g8
g3
NtRp2244
(dp2245
g11
g1884
sg13
S'URW Palladio L'
p2246
sg15
I700
sg16
g1879
sg17
g1879
sg18
g1818
sg20
g1881
sbag1
(g8
g3
NtRp2247
(dp2248
g11
g1884
sg13
S'TeXGyreTermes'
p2249
sg15
I400
sg16
g1879
sg17
g1879
sg18
g1819
sg20
g1881
sbag1
(g8
g3
NtRp2250
(dp2251
g11
g1879
sg13
S'TeXGyreBonum'
p2252
sg15
I700
sg16
g1879
sg17
g1879
sg18
g1820
sg20
g1881
sbag1
(g8
g3
NtRp2253
(dp2254
g11
g1884
sg13
S'Nimbus Sans L'
p2255
sg15
I400
sg16
g1901
sg17
g1879
sg18
g1821
sg20
g1881
sbag1
(g8
g3
NtRp2256
(dp2257
g11
g1879
sg13
S'TeXGyreTermes'
p2258
sg15
I400
sg16
g1879
sg17
g1879
sg18
g1822
sg20
g1881
sbag1
(g8
g3
NtRp2259
(dp2260
g11
g1879
sg13
S'LMMonoCaps10'
p2261
sg15
I400
sg16
g1879
sg17
g1879
sg18
g1823
sg20
g1881
sbag1
(g8
g3
NtRp2262
(dp2263
g11
g1884
sg13
S'LMRomanCaps10'
p2264
sg15
I400
sg16
g1879
sg17
g1879
sg18
g1824
sg20
g1881
sbag1
(g8
g3
NtRp2265
(dp2266
g11
g1879
sg13
S'TeXGyreAdventor'
p2267
sg15
I700
sg16
g1879
sg17
g1879
sg18
g1825
sg20
g1881
sbag1
(g8
g3
NtRp2268
(dp2269
g11
g1884
sg13
S'Bitstream Charter'
p2270
sg15
I700
sg16
g1879
sg17
g1879
sg18
g1826
sg20
g1881
sbag1
(g8
g3
NtRp2271
(dp2272
g11
g1884
sg13
S'LMMonoProp10'
p2273
sg15
I400
sg16
g1879
sg17
g1879
sg18
g1827
sg20
g1881
sbag1
(g8
g3
NtRp2274
(dp2275
g11
g1879
sg13
S'LMSans10'
p2276
sg15
I400
sg16
g1879
sg17
g1879
sg18
g1828
sg20
g1881
sbag1
(g8
g3
NtRp2277
(dp2278
g11
g1879
sg13
S'LMMonoProp10'
p2279
sg15
I400
sg16
g1879
sg17
g1879
sg18
g1829
sg20
g1881
sbag1
(g8
g3
NtRp2280
(dp2281
g11
g1884
sg13
S'URW Bookman L'
p2282
sg15
I700
sg16
g1879
sg17
g1879
sg18
g1830
sg20
g1881
sbag1
(g8
g3
NtRp2283
(dp2284
g11
g1884
sg13
S'LMRomanDunh10'
p2285
sg15
I400
sg16
g1879
sg17
g1879
sg18
g1831
sg20
g1881
sbag1
(g8
g3
NtRp2286
(dp2287
g11
g1884
sg13
S'TeXGyreTermes'
p2288
sg15
I700
sg16
g1879
sg17
g1879
sg18
g1832
sg20
g1881
sbag1
(g8
g3
NtRp2289
(dp2290
g11
g1884
sg13
S'TeXGyreSchola'
p2291
sg15
I400
sg16
g1879
sg17
g1879
sg18
g1833
sg20
g1881
sbag1
(g8
g3
NtRp2292
(dp2293
g11
g1879
sg13
S'Nimbus Mono L'
p2294
sg15
I700
sg16
g1879
sg17
g1879
sg18
g1834
sg20
g1881
sbag1
(g8
g3
NtRp2295
(dp2296
g11
g1884
sg13
S'TeXGyreHerosCondensed'
p2297
sg15
I700
sg16
g1901
sg17
g1879
sg18
g1836
sg20
g1881
sbag1
(g8
g3
NtRp2298
(dp2299
g11
g1884
sg13
S'LMRoman10'
p2300
sg15
I400
sg16
g1879
sg17
g1879
sg18
g1837
sg20
g1881
sbag1
(g8
g3
NtRp2301
(dp2302
g11
g1879
sg13
S'LMRoman10'
p2303
sg15
I400
sg16
g1879
sg17
g1879
sg18
g1839
sg20
g1881
sbag1
(g8
g3
NtRp2304
(dp2305
g11
g1884
sg13
S'Bitstream Charter'
p2306
sg15
I400
sg16
g1879
sg17
g1879
sg18
g1840
sg20
g1881
sbag1
(g8
g3
NtRp2307
(dp2308
g11
g1879
sg13
S'LMMonoLt10'
p2309
sg15
I200
sg16
g1879
sg17
g1879
sg18
g1841
sg20
g1881
sbag1
(g8
g3
NtRp2310
(dp2311
g11
g1884
sg13
S'TeXGyrePagella'
p2312
sg15
I400
sg16
g1879
sg17
g1879
sg18
g1842
sg20
g1881
sbag1
(g8
g3
NtRp2313
(dp2314
g11
g1884
sg13
S'TeXGyreAdventor'
p2315
sg15
I700
sg16
g1879
sg17
g1879
sg18
g1843
sg20
g1881
sbag1
(g8
g3
NtRp2316
(dp2317
g11
g1879
sg13
S'TeXGyreHerosCondensed'
p2318
sg15
I400
sg16
g1901
sg17
g1879
sg18
g1844
sg20
g1881
sbag1
(g8
g3
NtRp2319
(dp2320
g11
g1884
sg13
S'LMMonoLtCond10'
p2321
sg15
I200
sg16
g1901
sg17
g1879
sg18
g1845
sg20
g1881
sbag1
(g8
g3
NtRp2322
(dp2323
g11
g1879
sg13
S'Century Schoolbook L'
p2324
sg15
I700
sg16
g1879
sg17
g1879
sg18
g1846
sg20
g1881
sbag1
(g8
g3
NtRp2325
(dp2326
g11
g1879
sg13
S'TeXGyrePagella'
p2327
sg15
I700
sg16
g1879
sg17
g1879
sg18
g1847
sg20
g1881
sbag1
(g8
g3
NtRp2328
(dp2329
g11
g1879
sg13
S'Nimbus Sans L'
p2330
sg15
I700
sg16
g1901
sg17
g1879
sg18
g1848
sg20
g1881
sbag1
(g8
g3
NtRp2331
(dp2332
g11
g1879
sg13
S'Nimbus Mono L'
p2333
sg15
I400
sg16
g1879
sg17
g1879
sg18
g1849
sg20
g1881
sbag1
(g8
g3
NtRp2334
(dp2335
g11
g1884
sg13
S'URW Gothic L'
p2336
sg15
I400
sg16
g1879
sg17
g1879
sg18
g1850
sg20
g1881
sbag1
(g8
g3
NtRp2337
(dp2338
g11
g1884
sg13
S'LMMonoPropLt10'
p2339
sg15
I700
sg16
g1879
sg17
g1879
sg18
g1851
sg20
g1881
sbag1
(g8
g3
NtRp2340
(dp2341
g11
g1879
sg13
S'Nimbus Sans L'
p2342
sg15
I400
sg16
g1901
sg17
g1879
sg18
g1852
sg20
g1881
sbag1
(g8
g3
NtRp2343
(dp2344
g11
g1884
sg13
S'TeXGyreCursor'
p2345
sg15
I400
sg16
g1879
sg17
g1879
sg18
g1853
sg20
g1881
sbag1
(g8
g3
NtRp2346
(dp2347
g11
g1884
sg13
S'Nimbus Sans L'
p2348
sg15
I700
sg16
g1901
sg17
g1879
sg18
g1854
sg20
g1881
sbag1
(g8
g3
NtRp2349
(dp2350
g11
g1884
sg13
S'Courier 10 Pitch'
p2351
sg15
I400
sg16
g1879
sg17
g1879
sg18
g1855
sg20
g1881
sbag1
(g8
g3
NtRp2352
(dp2353
g11
g1879
sg13
S'LMSansQuot8'
p2354
sg15
I400
sg16
g1879
sg17
g1879
sg18
g1856
sg20
g1881
sbag1
(g8
g3
NtRp2355
(dp2356
g11
g1884
sg13
S'LMRomanSlant10'
p2357
sg15
I400
sg16
g1879
sg17
g1879
sg18
g1857
sg20
g1881
sbag1
(g8
g3
NtRp2358
(dp2359
g11
g1879
sg13
S'TeXGyreAdventor'
p2360
sg15
I400
sg16
g1879
sg17
g1879
sg18
g1858
sg20
g1881
sbag1
(g8
g3
NtRp2361
(dp2362
g11
g1884
sg13
S'Century Schoolbook L'
p2363
sg15
I400
sg16
g1879
sg17
g1879
sg18
g1859
sg20
g1881
sbag1
(g8
g3
NtRp2364
(dp2365
g11
g1884
sg13
S'Nimbus Sans L'
p2366
sg15
I400
sg16
g1879
sg17
g1879
sg18
g1860
sg20
g1881
sbag1
(g8
g3
NtRp2367
(dp2368
g11
g1884
sg13
S'LMMonoLt10'
p2369
sg15
I700
sg16
g1879
sg17
g1879
sg18
g1861
sg20
g1881
sbag1
(g8
g3
NtRp2370
(dp2371
g11
g1884
sg13
S'TeXGyreChorus'
p2372
sg15
I500
sg16
g1879
sg17
g1879
sg18
g1862
sg20
g1881
sbag1
(g8
g3
NtRp2373
(dp2374
g11
g1884
sg13
S'LMSans10'
p2375
sg15
I400
sg16
g1879
sg17
g1879
sg18
g1863
sg20
g1881
sbag1
(g8
g3
NtRp2376
(dp2377
g11
g1884
sg13
S'LMRomanDemi10'
p2378
sg15
I600
sg16
g1879
sg17
g1879
sg18
g1864
sg20
g1881
sbag1
(g8
g3
NtRp2379
(dp2380
g11
g1884
sg13
S'URW Palladio L'
p2381
sg15
I400
sg16
g1879
sg17
g1879
sg18
g1865
sg20
g1881
sbag1
(g8
g3
NtRp2382
(dp2383
g11
g1884
sg13
S'TeXGyrePagella'
p2384
sg15
I700
sg16
g1879
sg17
g1879
sg18
g1866
sg20
g1881
sbag1
(g8
g3
NtRp2385
(dp2386
g11
g1879
sg13
S'LMSansDemiCond10'
p2387
sg15
I600
sg16
g1901
sg17
g1879
sg18
g1867
sg20
g1881
sbag1
(g8
g3
NtRp2388
(dp2389
g11
g1884
sg13
S'LMMonoSlant10'
p2390
sg15
I400
sg16
g1879
sg17
g1879
sg18
g1868
sg20
g1881
sbag1
(g8
g3
NtRp2391
(dp2392
g11
g1884
sg13
S'Nimbus Mono L'
p2393
sg15
I400
sg16
g1879
sg17
g1879
sg18
g1869
sg20
g1881
sbag1
(g8
g3
NtRp2394
(dp2395
g11
g1884
sg13
S'TeXGyreHerosCondensed'
p2396
sg15
I400
sg16
g1901
sg17
g1879
sg18
g1870
sg20
g1881
sbag1
(g8
g3
NtRp2397
(dp2398
g11
g1884
sg13
S'URW Gothic L'
p2399
sg15
I600
sg16
g1879
sg17
g1879
sg18
g1871
sg20
g1881
sbag1
(g8
g3
NtRp2400
(dp2401
g11
g1884
sg13
S'TeXGyreBonum'
p2402
sg15
I400
sg16
g1879
sg17
g1879
sg18
g1872
sg20
g1881
sbag1
(g8
g3
NtRp2403
(dp2404
g11
g1879
sg13
S'Bitstream Charter'
p2405
sg15
I700
sg16
g1879
sg17
g1879
sg18
g1873
sg20
g1881
sbag1
(g8
g3
NtRp2406
(dp2407
g11
g1879
sg13
S'LMRomanUnsl10'
p2408
sg15
I400
sg16
g1879
sg17
g1879
sg18
g1874
sg20
g1881
sbasb.